
eeprom testing.elf:     file format elf32-avr

Sections:
Idx Name          Size      VMA       LMA       File off  Algn
  0 .text         0000053c  00000000  00000000  00000094  2**1
                  CONTENTS, ALLOC, LOAD, READONLY, CODE
  1 .data         00000002  00800060  0000053c  000005d0  2**0
                  CONTENTS, ALLOC, LOAD, DATA
  2 .bss          00000001  00800062  00800062  000005d2  2**0
                  ALLOC
  3 .comment      00000030  00000000  00000000  000005d2  2**0
                  CONTENTS, READONLY
  4 .note.gnu.avr.deviceinfo 0000003c  00000000  00000000  00000604  2**2
                  CONTENTS, READONLY
  5 .debug_aranges 00000060  00000000  00000000  00000640  2**0
                  CONTENTS, READONLY, DEBUGGING
  6 .debug_info   000009ff  00000000  00000000  000006a0  2**0
                  CONTENTS, READONLY, DEBUGGING
  7 .debug_abbrev 000006eb  00000000  00000000  0000109f  2**0
                  CONTENTS, READONLY, DEBUGGING
  8 .debug_line   000005b8  00000000  00000000  0000178a  2**0
                  CONTENTS, READONLY, DEBUGGING
  9 .debug_frame  00000158  00000000  00000000  00001d44  2**2
                  CONTENTS, READONLY, DEBUGGING
 10 .debug_str    0000049a  00000000  00000000  00001e9c  2**0
                  CONTENTS, READONLY, DEBUGGING
 11 .debug_loc    00000835  00000000  00000000  00002336  2**0
                  CONTENTS, READONLY, DEBUGGING
 12 .debug_ranges 00000050  00000000  00000000  00002b6b  2**0
                  CONTENTS, READONLY, DEBUGGING

Disassembly of section .text:

00000000 <__vectors>:
   0:	0c 94 2a 00 	jmp	0x54	; 0x54 <__ctors_end>
   4:	0c 94 47 00 	jmp	0x8e	; 0x8e <__bad_interrupt>
   8:	0c 94 47 00 	jmp	0x8e	; 0x8e <__bad_interrupt>
   c:	0c 94 47 00 	jmp	0x8e	; 0x8e <__bad_interrupt>
  10:	0c 94 47 00 	jmp	0x8e	; 0x8e <__bad_interrupt>
  14:	0c 94 47 00 	jmp	0x8e	; 0x8e <__bad_interrupt>
  18:	0c 94 47 00 	jmp	0x8e	; 0x8e <__bad_interrupt>
  1c:	0c 94 47 00 	jmp	0x8e	; 0x8e <__bad_interrupt>
  20:	0c 94 47 00 	jmp	0x8e	; 0x8e <__bad_interrupt>
  24:	0c 94 47 00 	jmp	0x8e	; 0x8e <__bad_interrupt>
  28:	0c 94 47 00 	jmp	0x8e	; 0x8e <__bad_interrupt>
  2c:	0c 94 47 00 	jmp	0x8e	; 0x8e <__bad_interrupt>
  30:	0c 94 47 00 	jmp	0x8e	; 0x8e <__bad_interrupt>
  34:	0c 94 47 00 	jmp	0x8e	; 0x8e <__bad_interrupt>
  38:	0c 94 47 00 	jmp	0x8e	; 0x8e <__bad_interrupt>
  3c:	0c 94 47 00 	jmp	0x8e	; 0x8e <__bad_interrupt>
  40:	0c 94 47 00 	jmp	0x8e	; 0x8e <__bad_interrupt>
  44:	0c 94 47 00 	jmp	0x8e	; 0x8e <__bad_interrupt>
  48:	0c 94 47 00 	jmp	0x8e	; 0x8e <__bad_interrupt>
  4c:	0c 94 47 00 	jmp	0x8e	; 0x8e <__bad_interrupt>
  50:	0c 94 47 00 	jmp	0x8e	; 0x8e <__bad_interrupt>

00000054 <__ctors_end>:
  54:	11 24       	eor	r1, r1
  56:	1f be       	out	0x3f, r1	; 63
  58:	cf e5       	ldi	r28, 0x5F	; 95
  5a:	d8 e0       	ldi	r29, 0x08	; 8
  5c:	de bf       	out	0x3e, r29	; 62
  5e:	cd bf       	out	0x3d, r28	; 61

00000060 <__do_copy_data>:
  60:	10 e0       	ldi	r17, 0x00	; 0
  62:	a0 e6       	ldi	r26, 0x60	; 96
  64:	b0 e0       	ldi	r27, 0x00	; 0
  66:	ec e3       	ldi	r30, 0x3C	; 60
  68:	f5 e0       	ldi	r31, 0x05	; 5
  6a:	02 c0       	rjmp	.+4      	; 0x70 <__do_copy_data+0x10>
  6c:	05 90       	lpm	r0, Z+
  6e:	0d 92       	st	X+, r0
  70:	a2 36       	cpi	r26, 0x62	; 98
  72:	b1 07       	cpc	r27, r17
  74:	d9 f7       	brne	.-10     	; 0x6c <__do_copy_data+0xc>

00000076 <__do_clear_bss>:
  76:	20 e0       	ldi	r18, 0x00	; 0
  78:	a2 e6       	ldi	r26, 0x62	; 98
  7a:	b0 e0       	ldi	r27, 0x00	; 0
  7c:	01 c0       	rjmp	.+2      	; 0x80 <.do_clear_bss_start>

0000007e <.do_clear_bss_loop>:
  7e:	1d 92       	st	X+, r1

00000080 <.do_clear_bss_start>:
  80:	a3 36       	cpi	r26, 0x63	; 99
  82:	b2 07       	cpc	r27, r18
  84:	e1 f7       	brne	.-8      	; 0x7e <.do_clear_bss_loop>
  86:	0e 94 6d 02 	call	0x4da	; 0x4da <main>
  8a:	0c 94 9c 02 	jmp	0x538	; 0x538 <_exit>

0000008e <__bad_interrupt>:
  8e:	0c 94 00 00 	jmp	0	; 0x0 <__vectors>

00000092 <_Z6ioinitv>:
  return total;
}

void error(void)
{
  exit(0);
  92:	11 b8       	out	0x01, r1	; 1
  94:	81 e4       	ldi	r24, 0x41	; 65
  96:	80 b9       	out	0x00, r24	; 0
  98:	08 95       	ret

0000009a <_Z22eeprom_read_bytes_partmiPh>:
  9a:	ef 92       	push	r14
  9c:	ff 92       	push	r15
  9e:	1f 93       	push	r17
  a0:	cf 93       	push	r28
  a2:	df 93       	push	r29
  a4:	fa 01       	movw	r30, r20
  a6:	61 15       	cp	r22, r1
  a8:	71 05       	cpc	r23, r1
  aa:	41 e0       	ldi	r20, 0x01	; 1
  ac:	84 07       	cpc	r24, r20
  ae:	91 05       	cpc	r25, r1
  b0:	38 f0       	brcs	.+14     	; 0xc0 <_Z22eeprom_read_bytes_partmiPh+0x26>
  b2:	01 97       	sbiw	r24, 0x01	; 1
  b4:	40 91 60 00 	lds	r20, 0x0060	; 0x800060 <__data_start>
  b8:	48 60       	ori	r20, 0x08	; 8
  ba:	40 93 60 00 	sts	0x0060, r20	; 0x800060 <__data_start>
  be:	05 c0       	rjmp	.+10     	; 0xca <_Z22eeprom_read_bytes_partmiPh+0x30>
  c0:	40 91 60 00 	lds	r20, 0x0060	; 0x800060 <__data_start>
  c4:	47 7f       	andi	r20, 0xF7	; 247
  c6:	40 93 60 00 	sts	0x0060, r20	; 0x800060 <__data_start>
  ca:	50 91 60 00 	lds	r21, 0x0060	; 0x800060 <__data_start>
  ce:	a7 2f       	mov	r26, r23
  d0:	d8 ec       	ldi	r29, 0xC8	; 200
  d2:	14 ea       	ldi	r17, 0xA4	; 164
  d4:	e1 2e       	mov	r14, r17
  d6:	44 e8       	ldi	r20, 0x84	; 132
  d8:	b5 2f       	mov	r27, r21
  da:	b1 60       	ori	r27, 0x01	; 1
  dc:	03 c0       	rjmp	.+6      	; 0xe4 <_Z22eeprom_read_bytes_partmiPh+0x4a>
  de:	d1 50       	subi	r29, 0x01	; 1
  e0:	09 f4       	brne	.+2      	; 0xe4 <_Z22eeprom_read_bytes_partmiPh+0x4a>
  e2:	a1 c0       	rjmp	.+322    	; 0x226 <_Z22eeprom_read_bytes_partmiPh+0x18c>
  e4:	e6 be       	out	0x36, r14	; 54
  e6:	06 b6       	in	r0, 0x36	; 54
  e8:	07 fe       	sbrs	r0, 7
  ea:	fd cf       	rjmp	.-6      	; 0xe6 <_Z22eeprom_read_bytes_partmiPh+0x4c>
  ec:	c1 b1       	in	r28, 0x01	; 1
  ee:	c8 7f       	andi	r28, 0xF8	; 248
  f0:	c0 93 62 00 	sts	0x0062, r28	; 0x800062 <__data_end>
  f4:	c0 31       	cpi	r28, 0x10	; 16
  f6:	29 f0       	breq	.+10     	; 0x102 <_Z22eeprom_read_bytes_partmiPh+0x68>
  f8:	c8 33       	cpi	r28, 0x38	; 56
  fa:	a1 f3       	breq	.-24     	; 0xe4 <_Z22eeprom_read_bytes_partmiPh+0x4a>
  fc:	c8 30       	cpi	r28, 0x08	; 8
  fe:	09 f0       	breq	.+2      	; 0x102 <_Z22eeprom_read_bytes_partmiPh+0x68>
 100:	95 c0       	rjmp	.+298    	; 0x22c <_Z22eeprom_read_bytes_partmiPh+0x192>
 102:	53 b9       	out	0x03, r21	; 3
 104:	46 bf       	out	0x36, r20	; 54
 106:	06 b6       	in	r0, 0x36	; 54
 108:	07 fe       	sbrs	r0, 7
 10a:	fd cf       	rjmp	.-6      	; 0x106 <_Z22eeprom_read_bytes_partmiPh+0x6c>
 10c:	c1 b1       	in	r28, 0x01	; 1
 10e:	c8 7f       	andi	r28, 0xF8	; 248
 110:	c0 93 62 00 	sts	0x0062, r28	; 0x800062 <__data_end>
 114:	c0 32       	cpi	r28, 0x20	; 32
 116:	19 f3       	breq	.-58     	; 0xde <_Z22eeprom_read_bytes_partmiPh+0x44>
 118:	c8 33       	cpi	r28, 0x38	; 56
 11a:	21 f3       	breq	.-56     	; 0xe4 <_Z22eeprom_read_bytes_partmiPh+0x4a>
 11c:	c8 31       	cpi	r28, 0x18	; 24
 11e:	09 f0       	breq	.+2      	; 0x122 <_Z22eeprom_read_bytes_partmiPh+0x88>
 120:	6b c0       	rjmp	.+214    	; 0x1f8 <_Z22eeprom_read_bytes_partmiPh+0x15e>
 122:	a3 b9       	out	0x03, r26	; 3
 124:	46 bf       	out	0x36, r20	; 54
 126:	06 b6       	in	r0, 0x36	; 54
 128:	07 fe       	sbrs	r0, 7
 12a:	fd cf       	rjmp	.-6      	; 0x126 <_Z22eeprom_read_bytes_partmiPh+0x8c>
 12c:	c1 b1       	in	r28, 0x01	; 1
 12e:	c8 7f       	andi	r28, 0xF8	; 248
 130:	c0 93 62 00 	sts	0x0062, r28	; 0x800062 <__data_end>
 134:	c0 33       	cpi	r28, 0x30	; 48
 136:	b1 f2       	breq	.-84     	; 0xe4 <_Z22eeprom_read_bytes_partmiPh+0x4a>
 138:	c8 33       	cpi	r28, 0x38	; 56
 13a:	a1 f2       	breq	.-88     	; 0xe4 <_Z22eeprom_read_bytes_partmiPh+0x4a>
 13c:	c8 32       	cpi	r28, 0x28	; 40
 13e:	09 f0       	breq	.+2      	; 0x142 <_Z22eeprom_read_bytes_partmiPh+0xa8>
 140:	5e c0       	rjmp	.+188    	; 0x1fe <_Z22eeprom_read_bytes_partmiPh+0x164>
 142:	63 b9       	out	0x03, r22	; 3
 144:	46 bf       	out	0x36, r20	; 54
 146:	06 b6       	in	r0, 0x36	; 54
 148:	07 fe       	sbrs	r0, 7
 14a:	fd cf       	rjmp	.-6      	; 0x146 <_Z22eeprom_read_bytes_partmiPh+0xac>
 14c:	c1 b1       	in	r28, 0x01	; 1
 14e:	c8 7f       	andi	r28, 0xF8	; 248
 150:	c0 93 62 00 	sts	0x0062, r28	; 0x800062 <__data_end>
 154:	c0 33       	cpi	r28, 0x30	; 48
 156:	09 f4       	brne	.+2      	; 0x15a <_Z22eeprom_read_bytes_partmiPh+0xc0>
 158:	55 c0       	rjmp	.+170    	; 0x204 <_Z22eeprom_read_bytes_partmiPh+0x16a>
 15a:	c8 33       	cpi	r28, 0x38	; 56
 15c:	19 f2       	breq	.-122    	; 0xe4 <_Z22eeprom_read_bytes_partmiPh+0x4a>
 15e:	c8 32       	cpi	r28, 0x28	; 40
 160:	19 f0       	breq	.+6      	; 0x168 <_Z22eeprom_read_bytes_partmiPh+0xce>
 162:	8f ef       	ldi	r24, 0xFF	; 255
 164:	9f ef       	ldi	r25, 0xFF	; 255
 166:	5c c0       	rjmp	.+184    	; 0x220 <_Z22eeprom_read_bytes_partmiPh+0x186>
 168:	16 bf       	out	0x36, r17	; 54
 16a:	06 b6       	in	r0, 0x36	; 54
 16c:	07 fe       	sbrs	r0, 7
 16e:	fd cf       	rjmp	.-6      	; 0x16a <_Z22eeprom_read_bytes_partmiPh+0xd0>
 170:	f1 b0       	in	r15, 0x01	; 1
 172:	cf 2d       	mov	r28, r15
 174:	c8 7f       	andi	r28, 0xF8	; 248
 176:	c0 93 62 00 	sts	0x0062, r28	; 0x800062 <__data_end>
 17a:	c0 31       	cpi	r28, 0x10	; 16
 17c:	31 f0       	breq	.+12     	; 0x18a <_Z22eeprom_read_bytes_partmiPh+0xf0>
 17e:	c8 33       	cpi	r28, 0x38	; 56
 180:	09 f4       	brne	.+2      	; 0x184 <_Z22eeprom_read_bytes_partmiPh+0xea>
 182:	b0 cf       	rjmp	.-160    	; 0xe4 <_Z22eeprom_read_bytes_partmiPh+0x4a>
 184:	c8 30       	cpi	r28, 0x08	; 8
 186:	09 f0       	breq	.+2      	; 0x18a <_Z22eeprom_read_bytes_partmiPh+0xf0>
 188:	40 c0       	rjmp	.+128    	; 0x20a <_Z22eeprom_read_bytes_partmiPh+0x170>
 18a:	b3 b9       	out	0x03, r27	; 3
 18c:	46 bf       	out	0x36, r20	; 54
 18e:	06 b6       	in	r0, 0x36	; 54
 190:	07 fe       	sbrs	r0, 7
 192:	fd cf       	rjmp	.-6      	; 0x18e <_Z22eeprom_read_bytes_partmiPh+0xf4>
 194:	f1 b0       	in	r15, 0x01	; 1
 196:	cf 2d       	mov	r28, r15
 198:	c8 7f       	andi	r28, 0xF8	; 248
 19a:	c0 93 62 00 	sts	0x0062, r28	; 0x800062 <__data_end>
 19e:	c0 34       	cpi	r28, 0x40	; 64
 1a0:	41 f0       	breq	.+16     	; 0x1b2 <_Z22eeprom_read_bytes_partmiPh+0x118>
 1a2:	c8 34       	cpi	r28, 0x48	; 72
 1a4:	a9 f1       	breq	.+106    	; 0x210 <_Z22eeprom_read_bytes_partmiPh+0x176>
 1a6:	c8 33       	cpi	r28, 0x38	; 56
 1a8:	09 f4       	brne	.+2      	; 0x1ac <_Z22eeprom_read_bytes_partmiPh+0x112>
 1aa:	9c cf       	rjmp	.-200    	; 0xe4 <_Z22eeprom_read_bytes_partmiPh+0x4a>
 1ac:	8f ef       	ldi	r24, 0xFF	; 255
 1ae:	9f ef       	ldi	r25, 0xFF	; 255
 1b0:	37 c0       	rjmp	.+110    	; 0x220 <_Z22eeprom_read_bytes_partmiPh+0x186>
 1b2:	1e 16       	cp	r1, r30
 1b4:	1f 06       	cpc	r1, r31
 1b6:	7c f5       	brge	.+94     	; 0x216 <_Z22eeprom_read_bytes_partmiPh+0x17c>
 1b8:	42 2f       	mov	r20, r18
 1ba:	53 2f       	mov	r21, r19
 1bc:	80 e0       	ldi	r24, 0x00	; 0
 1be:	90 e0       	ldi	r25, 0x00	; 0
 1c0:	34 ec       	ldi	r19, 0xC4	; 196
 1c2:	64 e8       	ldi	r22, 0x84	; 132
 1c4:	da 01       	movw	r26, r20
 1c6:	e1 30       	cpi	r30, 0x01	; 1
 1c8:	f1 05       	cpc	r31, r1
 1ca:	09 f4       	brne	.+2      	; 0x1ce <_Z22eeprom_read_bytes_partmiPh+0x134>
 1cc:	36 2f       	mov	r19, r22
 1ce:	36 bf       	out	0x36, r19	; 54
 1d0:	06 b6       	in	r0, 0x36	; 54
 1d2:	07 fe       	sbrs	r0, 7
 1d4:	fd cf       	rjmp	.-6      	; 0x1d0 <_Z22eeprom_read_bytes_partmiPh+0x136>
 1d6:	21 b1       	in	r18, 0x01	; 1
 1d8:	28 7f       	andi	r18, 0xF8	; 248
 1da:	20 93 62 00 	sts	0x0062, r18	; 0x800062 <__data_end>
 1de:	20 35       	cpi	r18, 0x50	; 80
 1e0:	19 f0       	breq	.+6      	; 0x1e8 <_Z22eeprom_read_bytes_partmiPh+0x14e>
 1e2:	28 35       	cpi	r18, 0x58	; 88
 1e4:	31 f1       	breq	.+76     	; 0x232 <_Z22eeprom_read_bytes_partmiPh+0x198>
 1e6:	1a c0       	rjmp	.+52     	; 0x21c <_Z22eeprom_read_bytes_partmiPh+0x182>
 1e8:	23 b1       	in	r18, 0x03	; 3
 1ea:	2c 93       	st	X, r18
 1ec:	4f 5f       	subi	r20, 0xFF	; 255
 1ee:	5f 4f       	sbci	r21, 0xFF	; 255
 1f0:	01 96       	adiw	r24, 0x01	; 1
 1f2:	31 97       	sbiw	r30, 0x01	; 1
 1f4:	39 f7       	brne	.-50     	; 0x1c4 <_Z22eeprom_read_bytes_partmiPh+0x12a>
 1f6:	14 c0       	rjmp	.+40     	; 0x220 <_Z22eeprom_read_bytes_partmiPh+0x186>
 1f8:	8f ef       	ldi	r24, 0xFF	; 255
 1fa:	9f ef       	ldi	r25, 0xFF	; 255
 1fc:	11 c0       	rjmp	.+34     	; 0x220 <_Z22eeprom_read_bytes_partmiPh+0x186>
 1fe:	8f ef       	ldi	r24, 0xFF	; 255
 200:	9f ef       	ldi	r25, 0xFF	; 255
 202:	0e c0       	rjmp	.+28     	; 0x220 <_Z22eeprom_read_bytes_partmiPh+0x186>
 204:	80 e0       	ldi	r24, 0x00	; 0
 206:	90 e0       	ldi	r25, 0x00	; 0
 208:	0b c0       	rjmp	.+22     	; 0x220 <_Z22eeprom_read_bytes_partmiPh+0x186>
 20a:	8f ef       	ldi	r24, 0xFF	; 255
 20c:	9f ef       	ldi	r25, 0xFF	; 255
 20e:	08 c0       	rjmp	.+16     	; 0x220 <_Z22eeprom_read_bytes_partmiPh+0x186>
 210:	80 e0       	ldi	r24, 0x00	; 0
 212:	90 e0       	ldi	r25, 0x00	; 0
 214:	05 c0       	rjmp	.+10     	; 0x220 <_Z22eeprom_read_bytes_partmiPh+0x186>
 216:	80 e0       	ldi	r24, 0x00	; 0
 218:	90 e0       	ldi	r25, 0x00	; 0
 21a:	02 c0       	rjmp	.+4      	; 0x220 <_Z22eeprom_read_bytes_partmiPh+0x186>
 21c:	8f ef       	ldi	r24, 0xFF	; 255
 21e:	9f ef       	ldi	r25, 0xFF	; 255
 220:	24 e9       	ldi	r18, 0x94	; 148
 222:	26 bf       	out	0x36, r18	; 54
 224:	0a c0       	rjmp	.+20     	; 0x23a <_Z22eeprom_read_bytes_partmiPh+0x1a0>
 226:	8f ef       	ldi	r24, 0xFF	; 255
 228:	9f ef       	ldi	r25, 0xFF	; 255
 22a:	07 c0       	rjmp	.+14     	; 0x23a <_Z22eeprom_read_bytes_partmiPh+0x1a0>
 22c:	8f ef       	ldi	r24, 0xFF	; 255
 22e:	9f ef       	ldi	r25, 0xFF	; 255
 230:	04 c0       	rjmp	.+8      	; 0x23a <_Z22eeprom_read_bytes_partmiPh+0x1a0>
 232:	23 b1       	in	r18, 0x03	; 3
 234:	2c 93       	st	X, r18
 236:	01 96       	adiw	r24, 0x01	; 1
 238:	f3 cf       	rjmp	.-26     	; 0x220 <_Z22eeprom_read_bytes_partmiPh+0x186>
 23a:	df 91       	pop	r29
 23c:	cf 91       	pop	r28
 23e:	1f 91       	pop	r17
 240:	ff 90       	pop	r15
 242:	ef 90       	pop	r14
 244:	08 95       	ret

00000246 <_Z17eeprom_write_pagemiPh>:
 246:	cf 92       	push	r12
 248:	df 92       	push	r13
 24a:	ef 92       	push	r14
 24c:	ff 92       	push	r15
 24e:	0f 93       	push	r16
 250:	1f 93       	push	r17
 252:	6b 01       	movw	r12, r22
 254:	7c 01       	movw	r14, r24
 256:	62 2f       	mov	r22, r18
 258:	73 2f       	mov	r23, r19
 25a:	c1 14       	cp	r12, r1
 25c:	d1 04       	cpc	r13, r1
 25e:	81 e0       	ldi	r24, 0x01	; 1
 260:	e8 06       	cpc	r14, r24
 262:	f1 04       	cpc	r15, r1
 264:	48 f0       	brcs	.+18     	; 0x278 <_Z17eeprom_write_pagemiPh+0x32>
 266:	81 e0       	ldi	r24, 0x01	; 1
 268:	e8 1a       	sub	r14, r24
 26a:	f1 08       	sbc	r15, r1
 26c:	80 91 60 00 	lds	r24, 0x0060	; 0x800060 <__data_start>
 270:	88 60       	ori	r24, 0x08	; 8
 272:	80 93 60 00 	sts	0x0060, r24	; 0x800060 <__data_start>
 276:	05 c0       	rjmp	.+10     	; 0x282 <_Z17eeprom_write_pagemiPh+0x3c>
 278:	80 91 60 00 	lds	r24, 0x0060	; 0x800060 <__data_start>
 27c:	87 7f       	andi	r24, 0xF7	; 247
 27e:	80 93 60 00 	sts	0x0060, r24	; 0x800060 <__data_start>
 282:	ca 01       	movw	r24, r20
 284:	05 2e       	mov	r0, r21
 286:	00 0c       	add	r0, r0
 288:	aa 0b       	sbc	r26, r26
 28a:	bb 0b       	sbc	r27, r27
 28c:	8c 0d       	add	r24, r12
 28e:	9d 1d       	adc	r25, r13
 290:	ae 1d       	adc	r26, r14
 292:	bf 1d       	adc	r27, r15
 294:	97 01       	movw	r18, r14
 296:	86 01       	movw	r16, r12
 298:	0f 67       	ori	r16, 0x7F	; 127
 29a:	80 17       	cp	r24, r16
 29c:	91 07       	cpc	r25, r17
 29e:	a2 07       	cpc	r26, r18
 2a0:	b3 07       	cpc	r27, r19
 2a2:	18 f4       	brcc	.+6      	; 0x2aa <_Z17eeprom_write_pagemiPh+0x64>
 2a4:	4c 0d       	add	r20, r12
 2a6:	5d 1d       	adc	r21, r13
 2a8:	04 c0       	rjmp	.+8      	; 0x2b2 <_Z17eeprom_write_pagemiPh+0x6c>
 2aa:	a6 01       	movw	r20, r12
 2ac:	4f 67       	ori	r20, 0x7F	; 127
 2ae:	4f 5f       	subi	r20, 0xFF	; 255
 2b0:	5f 4f       	sbci	r21, 0xFF	; 255
 2b2:	30 91 60 00 	lds	r19, 0x0060	; 0x800060 <__data_start>
 2b6:	fd 2d       	mov	r31, r13
 2b8:	e8 ec       	ldi	r30, 0xC8	; 200
 2ba:	94 ea       	ldi	r25, 0xA4	; 164
 2bc:	24 e8       	ldi	r18, 0x84	; 132
 2be:	03 c0       	rjmp	.+6      	; 0x2c6 <_Z17eeprom_write_pagemiPh+0x80>
 2c0:	e1 50       	subi	r30, 0x01	; 1
 2c2:	09 f4       	brne	.+2      	; 0x2c6 <_Z17eeprom_write_pagemiPh+0x80>
 2c4:	6f c0       	rjmp	.+222    	; 0x3a4 <_Z17eeprom_write_pagemiPh+0x15e>
 2c6:	96 bf       	out	0x36, r25	; 54
 2c8:	06 b6       	in	r0, 0x36	; 54
 2ca:	07 fe       	sbrs	r0, 7
 2cc:	fd cf       	rjmp	.-6      	; 0x2c8 <_Z17eeprom_write_pagemiPh+0x82>
 2ce:	81 b1       	in	r24, 0x01	; 1
 2d0:	88 7f       	andi	r24, 0xF8	; 248
 2d2:	80 93 62 00 	sts	0x0062, r24	; 0x800062 <__data_end>
 2d6:	80 31       	cpi	r24, 0x10	; 16
 2d8:	29 f0       	breq	.+10     	; 0x2e4 <_Z17eeprom_write_pagemiPh+0x9e>
 2da:	88 33       	cpi	r24, 0x38	; 56
 2dc:	a1 f3       	breq	.-24     	; 0x2c6 <_Z17eeprom_write_pagemiPh+0x80>
 2de:	88 30       	cpi	r24, 0x08	; 8
 2e0:	09 f0       	breq	.+2      	; 0x2e4 <_Z17eeprom_write_pagemiPh+0x9e>
 2e2:	63 c0       	rjmp	.+198    	; 0x3aa <_Z17eeprom_write_pagemiPh+0x164>
 2e4:	33 b9       	out	0x03, r19	; 3
 2e6:	26 bf       	out	0x36, r18	; 54
 2e8:	06 b6       	in	r0, 0x36	; 54
 2ea:	07 fe       	sbrs	r0, 7
 2ec:	fd cf       	rjmp	.-6      	; 0x2e8 <_Z17eeprom_write_pagemiPh+0xa2>
 2ee:	81 b1       	in	r24, 0x01	; 1
 2f0:	88 7f       	andi	r24, 0xF8	; 248
 2f2:	80 93 62 00 	sts	0x0062, r24	; 0x800062 <__data_end>
 2f6:	80 32       	cpi	r24, 0x20	; 32
 2f8:	19 f3       	breq	.-58     	; 0x2c0 <_Z17eeprom_write_pagemiPh+0x7a>
 2fa:	88 33       	cpi	r24, 0x38	; 56
 2fc:	21 f3       	breq	.-56     	; 0x2c6 <_Z17eeprom_write_pagemiPh+0x80>
 2fe:	88 31       	cpi	r24, 0x18	; 24
 300:	09 f0       	breq	.+2      	; 0x304 <_Z17eeprom_write_pagemiPh+0xbe>
 302:	3f c0       	rjmp	.+126    	; 0x382 <_Z17eeprom_write_pagemiPh+0x13c>
 304:	f3 b9       	out	0x03, r31	; 3
 306:	26 bf       	out	0x36, r18	; 54
 308:	06 b6       	in	r0, 0x36	; 54
 30a:	07 fe       	sbrs	r0, 7
 30c:	fd cf       	rjmp	.-6      	; 0x308 <_Z17eeprom_write_pagemiPh+0xc2>
 30e:	81 b1       	in	r24, 0x01	; 1
 310:	88 7f       	andi	r24, 0xF8	; 248
 312:	80 93 62 00 	sts	0x0062, r24	; 0x800062 <__data_end>
 316:	80 33       	cpi	r24, 0x30	; 48
 318:	b9 f1       	breq	.+110    	; 0x388 <_Z17eeprom_write_pagemiPh+0x142>
 31a:	88 33       	cpi	r24, 0x38	; 56
 31c:	a1 f2       	breq	.-88     	; 0x2c6 <_Z17eeprom_write_pagemiPh+0x80>
 31e:	88 32       	cpi	r24, 0x28	; 40
 320:	19 f0       	breq	.+6      	; 0x328 <_Z17eeprom_write_pagemiPh+0xe2>
 322:	8f ef       	ldi	r24, 0xFF	; 255
 324:	9f ef       	ldi	r25, 0xFF	; 255
 326:	3b c0       	rjmp	.+118    	; 0x39e <_Z17eeprom_write_pagemiPh+0x158>
 328:	c3 b8       	out	0x03, r12	; 3
 32a:	26 bf       	out	0x36, r18	; 54
 32c:	06 b6       	in	r0, 0x36	; 54
 32e:	07 fe       	sbrs	r0, 7
 330:	fd cf       	rjmp	.-6      	; 0x32c <_Z17eeprom_write_pagemiPh+0xe6>
 332:	81 b1       	in	r24, 0x01	; 1
 334:	88 7f       	andi	r24, 0xF8	; 248
 336:	80 93 62 00 	sts	0x0062, r24	; 0x800062 <__data_end>
 33a:	80 33       	cpi	r24, 0x30	; 48
 33c:	41 f1       	breq	.+80     	; 0x38e <_Z17eeprom_write_pagemiPh+0x148>
 33e:	88 33       	cpi	r24, 0x38	; 56
 340:	11 f2       	breq	.-124    	; 0x2c6 <_Z17eeprom_write_pagemiPh+0x80>
 342:	88 32       	cpi	r24, 0x28	; 40
 344:	19 f0       	breq	.+6      	; 0x34c <_Z17eeprom_write_pagemiPh+0x106>
 346:	8f ef       	ldi	r24, 0xFF	; 255
 348:	9f ef       	ldi	r25, 0xFF	; 255
 34a:	29 c0       	rjmp	.+82     	; 0x39e <_Z17eeprom_write_pagemiPh+0x158>
 34c:	4c 19       	sub	r20, r12
 34e:	5d 09       	sbc	r21, r13
 350:	14 16       	cp	r1, r20
 352:	15 06       	cpc	r1, r21
 354:	fc f4       	brge	.+62     	; 0x394 <_Z17eeprom_write_pagemiPh+0x14e>
 356:	e6 2f       	mov	r30, r22
 358:	f7 2f       	mov	r31, r23
 35a:	80 e0       	ldi	r24, 0x00	; 0
 35c:	90 e0       	ldi	r25, 0x00	; 0
 35e:	34 e8       	ldi	r19, 0x84	; 132
 360:	21 91       	ld	r18, Z+
 362:	23 b9       	out	0x03, r18	; 3
 364:	36 bf       	out	0x36, r19	; 54
 366:	06 b6       	in	r0, 0x36	; 54
 368:	07 fe       	sbrs	r0, 7
 36a:	fd cf       	rjmp	.-6      	; 0x366 <_Z17eeprom_write_pagemiPh+0x120>
 36c:	21 b1       	in	r18, 0x01	; 1
 36e:	28 7f       	andi	r18, 0xF8	; 248
 370:	20 93 62 00 	sts	0x0062, r18	; 0x800062 <__data_end>
 374:	28 32       	cpi	r18, 0x28	; 40
 376:	89 f4       	brne	.+34     	; 0x39a <_Z17eeprom_write_pagemiPh+0x154>
 378:	01 96       	adiw	r24, 0x01	; 1
 37a:	48 17       	cp	r20, r24
 37c:	59 07       	cpc	r21, r25
 37e:	81 f7       	brne	.-32     	; 0x360 <_Z17eeprom_write_pagemiPh+0x11a>
 380:	0e c0       	rjmp	.+28     	; 0x39e <_Z17eeprom_write_pagemiPh+0x158>
 382:	8f ef       	ldi	r24, 0xFF	; 255
 384:	9f ef       	ldi	r25, 0xFF	; 255
 386:	0b c0       	rjmp	.+22     	; 0x39e <_Z17eeprom_write_pagemiPh+0x158>
 388:	80 e0       	ldi	r24, 0x00	; 0
 38a:	90 e0       	ldi	r25, 0x00	; 0
 38c:	08 c0       	rjmp	.+16     	; 0x39e <_Z17eeprom_write_pagemiPh+0x158>
 38e:	80 e0       	ldi	r24, 0x00	; 0
 390:	90 e0       	ldi	r25, 0x00	; 0
 392:	05 c0       	rjmp	.+10     	; 0x39e <_Z17eeprom_write_pagemiPh+0x158>
 394:	80 e0       	ldi	r24, 0x00	; 0
 396:	90 e0       	ldi	r25, 0x00	; 0
 398:	02 c0       	rjmp	.+4      	; 0x39e <_Z17eeprom_write_pagemiPh+0x158>
 39a:	8f ef       	ldi	r24, 0xFF	; 255
 39c:	9f ef       	ldi	r25, 0xFF	; 255
 39e:	24 e9       	ldi	r18, 0x94	; 148
 3a0:	26 bf       	out	0x36, r18	; 54
 3a2:	05 c0       	rjmp	.+10     	; 0x3ae <_Z17eeprom_write_pagemiPh+0x168>
 3a4:	8f ef       	ldi	r24, 0xFF	; 255
 3a6:	9f ef       	ldi	r25, 0xFF	; 255
 3a8:	02 c0       	rjmp	.+4      	; 0x3ae <_Z17eeprom_write_pagemiPh+0x168>
 3aa:	8f ef       	ldi	r24, 0xFF	; 255
 3ac:	9f ef       	ldi	r25, 0xFF	; 255
 3ae:	1f 91       	pop	r17
 3b0:	0f 91       	pop	r16
 3b2:	ff 90       	pop	r15
 3b4:	ef 90       	pop	r14
 3b6:	df 90       	pop	r13
 3b8:	cf 90       	pop	r12
 3ba:	08 95       	ret

000003bc <_Z18eeprom_write_bytesmiPh>:
 3bc:	8f 92       	push	r8
 3be:	9f 92       	push	r9
 3c0:	af 92       	push	r10
 3c2:	bf 92       	push	r11
 3c4:	ef 92       	push	r14
 3c6:	ff 92       	push	r15
 3c8:	0f 93       	push	r16
 3ca:	1f 93       	push	r17
 3cc:	cf 93       	push	r28
 3ce:	df 93       	push	r29
 3d0:	4b 01       	movw	r8, r22
 3d2:	5c 01       	movw	r10, r24
 3d4:	ea 01       	movw	r28, r20
 3d6:	89 01       	movw	r16, r18
 3d8:	e1 2c       	mov	r14, r1
 3da:	f1 2c       	mov	r15, r1
 3dc:	98 01       	movw	r18, r16
 3de:	ae 01       	movw	r20, r28
 3e0:	c5 01       	movw	r24, r10
 3e2:	b4 01       	movw	r22, r8
 3e4:	0e 94 23 01 	call	0x246	; 0x246 <_Z17eeprom_write_pagemiPh>
 3e8:	8f 3f       	cpi	r24, 0xFF	; 255
 3ea:	2f ef       	ldi	r18, 0xFF	; 255
 3ec:	92 07       	cpc	r25, r18
 3ee:	a9 f0       	breq	.+42     	; 0x41a <__LOCK_REGION_LENGTH__+0x1a>
 3f0:	ac 01       	movw	r20, r24
 3f2:	09 2e       	mov	r0, r25
 3f4:	00 0c       	add	r0, r0
 3f6:	66 0b       	sbc	r22, r22
 3f8:	77 0b       	sbc	r23, r23
 3fa:	84 0e       	add	r8, r20
 3fc:	95 1e       	adc	r9, r21
 3fe:	a6 1e       	adc	r10, r22
 400:	b7 1e       	adc	r11, r23
 402:	c8 1b       	sub	r28, r24
 404:	d9 0b       	sbc	r29, r25
 406:	08 0f       	add	r16, r24
 408:	19 1f       	adc	r17, r25
 40a:	e8 0e       	add	r14, r24
 40c:	f9 1e       	adc	r15, r25
 40e:	1c 16       	cp	r1, r28
 410:	1d 06       	cpc	r1, r29
 412:	24 f3       	brlt	.-56     	; 0x3dc <_Z18eeprom_write_bytesmiPh+0x20>
 414:	8e 2d       	mov	r24, r14
 416:	9f 2d       	mov	r25, r15
 418:	02 c0       	rjmp	.+4      	; 0x41e <__LOCK_REGION_LENGTH__+0x1e>
 41a:	8f ef       	ldi	r24, 0xFF	; 255
 41c:	9f ef       	ldi	r25, 0xFF	; 255
 41e:	df 91       	pop	r29
 420:	cf 91       	pop	r28
 422:	1f 91       	pop	r17
 424:	0f 91       	pop	r16
 426:	ff 90       	pop	r15
 428:	ef 90       	pop	r14
 42a:	bf 90       	pop	r11
 42c:	af 90       	pop	r10
 42e:	9f 90       	pop	r9
 430:	8f 90       	pop	r8
 432:	08 95       	ret

00000434 <_Z17eeprom_read_bytesmiPh>:
}

int eeprom_read_bytes(uint32_t eeaddr, int len, uint8_t *buf)
{
 434:	af 92       	push	r10
 436:	bf 92       	push	r11
 438:	cf 92       	push	r12
 43a:	df 92       	push	r13
 43c:	ef 92       	push	r14
 43e:	ff 92       	push	r15
 440:	0f 93       	push	r16
 442:	1f 93       	push	r17
 444:	cf 93       	push	r28
 446:	df 93       	push	r29
 448:	6b 01       	movw	r12, r22
 44a:	7c 01       	movw	r14, r24
 44c:	ea 01       	movw	r28, r20
 44e:	89 01       	movw	r16, r18
	if((eeaddr < HALF_ADDR) && ((eeaddr + len) > HALF_ADDR))
 450:	61 15       	cp	r22, r1
 452:	71 05       	cpc	r23, r1
 454:	81 40       	sbci	r24, 0x01	; 1
 456:	91 05       	cpc	r25, r1
 458:	18 f5       	brcc	.+70     	; 0x4a0 <_Z17eeprom_read_bytesmiPh+0x6c>
 45a:	ca 01       	movw	r24, r20
 45c:	55 0f       	add	r21, r21
 45e:	aa 0b       	sbc	r26, r26
 460:	bb 0b       	sbc	r27, r27
 462:	8c 0d       	add	r24, r12
 464:	9d 1d       	adc	r25, r13
 466:	ae 1d       	adc	r26, r14
 468:	bf 1d       	adc	r27, r15
 46a:	01 97       	sbiw	r24, 0x01	; 1
 46c:	a1 40       	sbci	r26, 0x01	; 1
 46e:	b1 05       	cpc	r27, r1
 470:	b8 f0       	brcs	.+46     	; 0x4a0 <_Z17eeprom_read_bytesmiPh+0x6c>
	{
		int first = HALF_ADDR - eeaddr;
 472:	aa 24       	eor	r10, r10
 474:	bb 24       	eor	r11, r11
 476:	ac 18       	sub	r10, r12
 478:	bd 08       	sbc	r11, r13
		eeprom_read_bytes_part(eeaddr, first, buf);
 47a:	98 01       	movw	r18, r16
 47c:	a5 01       	movw	r20, r10
 47e:	c7 01       	movw	r24, r14
 480:	b6 01       	movw	r22, r12
 482:	0e 94 4d 00 	call	0x9a	; 0x9a <_Z22eeprom_read_bytes_partmiPh>
		return eeprom_read_bytes_part(HALF_ADDR, len - first , buf + first);
 486:	98 01       	movw	r18, r16
 488:	2a 0d       	add	r18, r10
 48a:	3b 1d       	adc	r19, r11
 48c:	ae 01       	movw	r20, r28
 48e:	4c 0d       	add	r20, r12
 490:	5d 1d       	adc	r21, r13
 492:	60 e0       	ldi	r22, 0x00	; 0
 494:	70 e0       	ldi	r23, 0x00	; 0
 496:	81 e0       	ldi	r24, 0x01	; 1
 498:	90 e0       	ldi	r25, 0x00	; 0
 49a:	0e 94 4d 00 	call	0x9a	; 0x9a <_Z22eeprom_read_bytes_partmiPh>
 49e:	06 c0       	rjmp	.+12     	; 0x4ac <_Z17eeprom_read_bytesmiPh+0x78>
	}
	
	return eeprom_read_bytes_part(eeaddr, len, buf);
 4a0:	98 01       	movw	r18, r16
 4a2:	ae 01       	movw	r20, r28
 4a4:	c7 01       	movw	r24, r14
 4a6:	b6 01       	movw	r22, r12
 4a8:	0e 94 4d 00 	call	0x9a	; 0x9a <_Z22eeprom_read_bytes_partmiPh>
}
 4ac:	df 91       	pop	r29
 4ae:	cf 91       	pop	r28
 4b0:	1f 91       	pop	r17
 4b2:	0f 91       	pop	r16
 4b4:	ff 90       	pop	r15
 4b6:	ef 90       	pop	r14
 4b8:	df 90       	pop	r13
 4ba:	cf 90       	pop	r12
 4bc:	bf 90       	pop	r11
 4be:	af 90       	pop	r10
 4c0:	08 95       	ret

000004c2 <_Z9UART_initv>:

void UART_init(void)
{
	UBRRH = (unsigned char)(BAUD_PRESCALLER>>8);						//UART initialization from data-sheet
 4c2:	10 bc       	out	0x20, r1	; 32
	UBRRL = (unsigned char)BAUD_PRESCALLER;
 4c4:	8f e5       	ldi	r24, 0x5F	; 95
 4c6:	89 b9       	out	0x09, r24	; 9
	UCSRB = (1<<RXEN)|(1<<TXEN);
 4c8:	88 e1       	ldi	r24, 0x18	; 24
 4ca:	8a b9       	out	0x0a, r24	; 10
	UCSRC = (1<<URSEL)|(1<<USBS)|(3<<UCSZ0);							// Set frame format: 8data, 2stop bit
 4cc:	8e e8       	ldi	r24, 0x8E	; 142
 4ce:	80 bd       	out	0x20, r24	; 32
 4d0:	08 95       	ret

000004d2 <_Z9UART_sendh>:
}

void UART_send(unsigned char data)
{
	while(!(UCSRA & (1<<UDRE)));										//wait for buffer to be emptied
 4d2:	5d 9b       	sbis	0x0b, 5	; 11
 4d4:	fe cf       	rjmp	.-4      	; 0x4d2 <_Z9UART_sendh>
	UDR=data;
 4d6:	8c b9       	out	0x0c, r24	; 12
 4d8:	08 95       	ret

000004da <main>:
}


int main(void)
{
 4da:	cf 93       	push	r28
 4dc:	df 93       	push	r29
 4de:	00 d0       	rcall	.+0      	; 0x4e0 <main+0x6>
 4e0:	00 d0       	rcall	.+0      	; 0x4e2 <main+0x8>
 4e2:	cd b7       	in	r28, 0x3d	; 61
 4e4:	de b7       	in	r29, 0x3e	; 62
	ioinit();
 4e6:	0e 94 49 00 	call	0x92	; 0x92 <_Z6ioinitv>
	uint8_t byte[2], output[2]; 
	byte[0]=0x01; byte[1]=0x02;
 4ea:	81 e0       	ldi	r24, 0x01	; 1
 4ec:	89 83       	std	Y+1, r24	; 0x01
 4ee:	82 e0       	ldi	r24, 0x02	; 2
 4f0:	8a 83       	std	Y+2, r24	; 0x02
	output[0]=0; output[1]=0;
 4f2:	1b 82       	std	Y+3, r1	; 0x03
 4f4:	1c 82       	std	Y+4, r1	; 0x04
	eeprom_write_bytes(eeprom_addr, 2, byte);
 4f6:	60 91 60 00 	lds	r22, 0x0060	; 0x800060 <__data_start>
 4fa:	70 e0       	ldi	r23, 0x00	; 0
 4fc:	80 e0       	ldi	r24, 0x00	; 0
 4fe:	90 e0       	ldi	r25, 0x00	; 0
 500:	9e 01       	movw	r18, r28
 502:	2f 5f       	subi	r18, 0xFF	; 255
 504:	3f 4f       	sbci	r19, 0xFF	; 255
 506:	42 e0       	ldi	r20, 0x02	; 2
 508:	50 e0       	ldi	r21, 0x00	; 0
 50a:	0e 94 de 01 	call	0x3bc	; 0x3bc <_Z18eeprom_write_bytesmiPh>
	eeprom_read_bytes(eeprom_addr,2, output);
 50e:	60 91 60 00 	lds	r22, 0x0060	; 0x800060 <__data_start>
 512:	70 e0       	ldi	r23, 0x00	; 0
 514:	80 e0       	ldi	r24, 0x00	; 0
 516:	90 e0       	ldi	r25, 0x00	; 0
 518:	9e 01       	movw	r18, r28
 51a:	2d 5f       	subi	r18, 0xFD	; 253
 51c:	3f 4f       	sbci	r19, 0xFF	; 255
 51e:	42 e0       	ldi	r20, 0x02	; 2
 520:	50 e0       	ldi	r21, 0x00	; 0
 522:	0e 94 1a 02 	call	0x434	; 0x434 <_Z17eeprom_read_bytesmiPh>
	UART_init();
 526:	0e 94 61 02 	call	0x4c2	; 0x4c2 <_Z9UART_initv>
	UART_send(output[0]);
 52a:	8b 81       	ldd	r24, Y+3	; 0x03
 52c:	0e 94 69 02 	call	0x4d2	; 0x4d2 <_Z9UART_sendh>
	UART_send(output[1]);
 530:	8c 81       	ldd	r24, Y+4	; 0x04
 532:	0e 94 69 02 	call	0x4d2	; 0x4d2 <_Z9UART_sendh>
 536:	ff cf       	rjmp	.-2      	; 0x536 <main+0x5c>

00000538 <_exit>:
 538:	f8 94       	cli

0000053a <__stop_program>:
 53a:	ff cf       	rjmp	.-2      	; 0x53a <__stop_program>
