
Programming-AD9833.elf:     file format elf32-avr

Sections:
Idx Name          Size      VMA       LMA       File off  Algn
  0 .text         000010d2  00000000  00000000  00000094  2**1
                  CONTENTS, ALLOC, LOAD, READONLY, CODE
  1 .data         0000000a  00800060  000010d2  00001166  2**0
                  CONTENTS, ALLOC, LOAD, DATA
  2 .bss          0000004f  0080006a  0080006a  00001170  2**0
                  ALLOC
  3 .comment      00000030  00000000  00000000  00001170  2**0
                  CONTENTS, READONLY
  4 .note.gnu.avr.deviceinfo 0000003c  00000000  00000000  000011a0  2**2
                  CONTENTS, READONLY
  5 .debug_aranges 000000a8  00000000  00000000  000011dc  2**0
                  CONTENTS, READONLY, DEBUGGING
  6 .debug_info   00001111  00000000  00000000  00001284  2**0
                  CONTENTS, READONLY, DEBUGGING
  7 .debug_abbrev 00000818  00000000  00000000  00002395  2**0
                  CONTENTS, READONLY, DEBUGGING
  8 .debug_line   000005eb  00000000  00000000  00002bad  2**0
                  CONTENTS, READONLY, DEBUGGING
  9 .debug_frame  000002d8  00000000  00000000  00003198  2**2
                  CONTENTS, READONLY, DEBUGGING
 10 .debug_str    00000695  00000000  00000000  00003470  2**0
                  CONTENTS, READONLY, DEBUGGING
 11 .debug_loc    00000db8  00000000  00000000  00003b05  2**0
                  CONTENTS, READONLY, DEBUGGING
 12 .debug_ranges 00000098  00000000  00000000  000048bd  2**0
                  CONTENTS, READONLY, DEBUGGING

Disassembly of section .text:

00000000 <__vectors>:
       0:	0c 94 2b 00 	jmp	0x56	; 0x56 <__ctors_end>
       4:	0c 94 53 00 	jmp	0xa6	; 0xa6 <__bad_interrupt>
       8:	0c 94 53 00 	jmp	0xa6	; 0xa6 <__bad_interrupt>
       c:	0c 94 53 00 	jmp	0xa6	; 0xa6 <__bad_interrupt>
      10:	0c 94 53 00 	jmp	0xa6	; 0xa6 <__bad_interrupt>
      14:	0c 94 53 00 	jmp	0xa6	; 0xa6 <__bad_interrupt>
      18:	0c 94 53 00 	jmp	0xa6	; 0xa6 <__bad_interrupt>
      1c:	0c 94 73 02 	jmp	0x4e6	; 0x4e6 <__vector_7>
      20:	0c 94 53 00 	jmp	0xa6	; 0xa6 <__bad_interrupt>
      24:	0c 94 53 00 	jmp	0xa6	; 0xa6 <__bad_interrupt>
      28:	0c 94 53 00 	jmp	0xa6	; 0xa6 <__bad_interrupt>
      2c:	0c 94 53 00 	jmp	0xa6	; 0xa6 <__bad_interrupt>
      30:	0c 94 49 03 	jmp	0x692	; 0x692 <__vector_12>
      34:	0c 94 53 00 	jmp	0xa6	; 0xa6 <__bad_interrupt>
      38:	0c 94 53 00 	jmp	0xa6	; 0xa6 <__bad_interrupt>
      3c:	0c 94 53 00 	jmp	0xa6	; 0xa6 <__bad_interrupt>
      40:	0c 94 53 00 	jmp	0xa6	; 0xa6 <__bad_interrupt>
      44:	0c 94 53 00 	jmp	0xa6	; 0xa6 <__bad_interrupt>
      48:	0c 94 53 00 	jmp	0xa6	; 0xa6 <__bad_interrupt>
      4c:	0c 94 53 00 	jmp	0xa6	; 0xa6 <__bad_interrupt>
      50:	0c 94 53 00 	jmp	0xa6	; 0xa6 <__bad_interrupt>

00000054 <__ctors_start>:
      54:	4a 03       	fmul	r20, r18

00000056 <__ctors_end>:
      56:	11 24       	eor	r1, r1
      58:	1f be       	out	0x3f, r1	; 63
      5a:	cf e5       	ldi	r28, 0x5F	; 95
      5c:	d8 e0       	ldi	r29, 0x08	; 8
      5e:	de bf       	out	0x3e, r29	; 62
      60:	cd bf       	out	0x3d, r28	; 61

00000062 <__do_copy_data>:
      62:	10 e0       	ldi	r17, 0x00	; 0
      64:	a0 e6       	ldi	r26, 0x60	; 96
      66:	b0 e0       	ldi	r27, 0x00	; 0
      68:	e2 ed       	ldi	r30, 0xD2	; 210
      6a:	f0 e1       	ldi	r31, 0x10	; 16
      6c:	02 c0       	rjmp	.+4      	; 0x72 <__do_copy_data+0x10>
      6e:	05 90       	lpm	r0, Z+
      70:	0d 92       	st	X+, r0
      72:	aa 36       	cpi	r26, 0x6A	; 106
      74:	b1 07       	cpc	r27, r17
      76:	d9 f7       	brne	.-10     	; 0x6e <__do_copy_data+0xc>

00000078 <__do_clear_bss>:
      78:	20 e0       	ldi	r18, 0x00	; 0
      7a:	aa e6       	ldi	r26, 0x6A	; 106
      7c:	b0 e0       	ldi	r27, 0x00	; 0
      7e:	01 c0       	rjmp	.+2      	; 0x82 <.do_clear_bss_start>

00000080 <.do_clear_bss_loop>:
      80:	1d 92       	st	X+, r1

00000082 <.do_clear_bss_start>:
      82:	a9 3b       	cpi	r26, 0xB9	; 185
      84:	b2 07       	cpc	r27, r18
      86:	e1 f7       	brne	.-8      	; 0x80 <.do_clear_bss_loop>

00000088 <__do_global_ctors>:
      88:	10 e0       	ldi	r17, 0x00	; 0
      8a:	cb e2       	ldi	r28, 0x2B	; 43
      8c:	d0 e0       	ldi	r29, 0x00	; 0
      8e:	04 c0       	rjmp	.+8      	; 0x98 <__do_global_ctors+0x10>
      90:	21 97       	sbiw	r28, 0x01	; 1
      92:	fe 01       	movw	r30, r28
      94:	0e 94 61 08 	call	0x10c2	; 0x10c2 <__tablejump2__>
      98:	ca 32       	cpi	r28, 0x2A	; 42
      9a:	d1 07       	cpc	r29, r17
      9c:	c9 f7       	brne	.-14     	; 0x90 <__do_global_ctors+0x8>
      9e:	0e 94 52 02 	call	0x4a4	; 0x4a4 <main>
      a2:	0c 94 67 08 	jmp	0x10ce	; 0x10ce <_exit>

000000a6 <__bad_interrupt>:
      a6:	0c 94 00 00 	jmp	0	; 0x0 <__vectors>

000000aa <_Z6ioinitv>:
	#else
		//round up by default
		__ticks_dc = (uint32_t)(ceil(fabs(__tmp)));
	#endif

	__builtin_avr_delay_cycles(__ticks_dc);
      aa:	11 b8       	out	0x01, r1	; 1
      ac:	8a e0       	ldi	r24, 0x0A	; 10
      ae:	80 b9       	out	0x00, r24	; 0
      b0:	08 95       	ret

000000b2 <_Z22eeprom_read_bytes_partmiPh>:
      b2:	ef 92       	push	r14
      b4:	ff 92       	push	r15
      b6:	1f 93       	push	r17
      b8:	cf 93       	push	r28
      ba:	df 93       	push	r29
      bc:	fa 01       	movw	r30, r20
      be:	61 15       	cp	r22, r1
      c0:	71 05       	cpc	r23, r1
      c2:	41 e0       	ldi	r20, 0x01	; 1
      c4:	84 07       	cpc	r24, r20
      c6:	91 05       	cpc	r25, r1
      c8:	38 f0       	brcs	.+14     	; 0xd8 <_Z22eeprom_read_bytes_partmiPh+0x26>
      ca:	01 97       	sbiw	r24, 0x01	; 1
      cc:	40 91 68 00 	lds	r20, 0x0068	; 0x800068 <_ZL11eeprom_addr>
      d0:	48 60       	ori	r20, 0x08	; 8
      d2:	40 93 68 00 	sts	0x0068, r20	; 0x800068 <_ZL11eeprom_addr>
      d6:	05 c0       	rjmp	.+10     	; 0xe2 <_Z22eeprom_read_bytes_partmiPh+0x30>
      d8:	40 91 68 00 	lds	r20, 0x0068	; 0x800068 <_ZL11eeprom_addr>
      dc:	47 7f       	andi	r20, 0xF7	; 247
      de:	40 93 68 00 	sts	0x0068, r20	; 0x800068 <_ZL11eeprom_addr>
      e2:	50 91 68 00 	lds	r21, 0x0068	; 0x800068 <_ZL11eeprom_addr>
      e6:	a7 2f       	mov	r26, r23
      e8:	d8 ec       	ldi	r29, 0xC8	; 200
      ea:	14 ea       	ldi	r17, 0xA4	; 164
      ec:	e1 2e       	mov	r14, r17
      ee:	44 e8       	ldi	r20, 0x84	; 132
      f0:	b5 2f       	mov	r27, r21
      f2:	b1 60       	ori	r27, 0x01	; 1
      f4:	03 c0       	rjmp	.+6      	; 0xfc <_Z22eeprom_read_bytes_partmiPh+0x4a>
      f6:	d1 50       	subi	r29, 0x01	; 1
      f8:	09 f4       	brne	.+2      	; 0xfc <_Z22eeprom_read_bytes_partmiPh+0x4a>
      fa:	a1 c0       	rjmp	.+322    	; 0x23e <_Z22eeprom_read_bytes_partmiPh+0x18c>
      fc:	e6 be       	out	0x36, r14	; 54
      fe:	06 b6       	in	r0, 0x36	; 54
     100:	07 fe       	sbrs	r0, 7
     102:	fd cf       	rjmp	.-6      	; 0xfe <_Z22eeprom_read_bytes_partmiPh+0x4c>
     104:	c1 b1       	in	r28, 0x01	; 1
     106:	c8 7f       	andi	r28, 0xF8	; 248
     108:	c0 93 b8 00 	sts	0x00B8, r28	; 0x8000b8 <twst>
     10c:	c0 31       	cpi	r28, 0x10	; 16
     10e:	29 f0       	breq	.+10     	; 0x11a <_Z22eeprom_read_bytes_partmiPh+0x68>
     110:	c8 33       	cpi	r28, 0x38	; 56
     112:	a1 f3       	breq	.-24     	; 0xfc <_Z22eeprom_read_bytes_partmiPh+0x4a>
     114:	c8 30       	cpi	r28, 0x08	; 8
     116:	09 f0       	breq	.+2      	; 0x11a <_Z22eeprom_read_bytes_partmiPh+0x68>
     118:	95 c0       	rjmp	.+298    	; 0x244 <_Z22eeprom_read_bytes_partmiPh+0x192>
     11a:	53 b9       	out	0x03, r21	; 3
     11c:	46 bf       	out	0x36, r20	; 54
     11e:	06 b6       	in	r0, 0x36	; 54
     120:	07 fe       	sbrs	r0, 7
     122:	fd cf       	rjmp	.-6      	; 0x11e <_Z22eeprom_read_bytes_partmiPh+0x6c>
     124:	c1 b1       	in	r28, 0x01	; 1
     126:	c8 7f       	andi	r28, 0xF8	; 248
     128:	c0 93 b8 00 	sts	0x00B8, r28	; 0x8000b8 <twst>
     12c:	c0 32       	cpi	r28, 0x20	; 32
     12e:	19 f3       	breq	.-58     	; 0xf6 <_Z22eeprom_read_bytes_partmiPh+0x44>
     130:	c8 33       	cpi	r28, 0x38	; 56
     132:	21 f3       	breq	.-56     	; 0xfc <_Z22eeprom_read_bytes_partmiPh+0x4a>
     134:	c8 31       	cpi	r28, 0x18	; 24
     136:	09 f0       	breq	.+2      	; 0x13a <_Z22eeprom_read_bytes_partmiPh+0x88>
     138:	6b c0       	rjmp	.+214    	; 0x210 <_Z22eeprom_read_bytes_partmiPh+0x15e>
     13a:	a3 b9       	out	0x03, r26	; 3
     13c:	46 bf       	out	0x36, r20	; 54
     13e:	06 b6       	in	r0, 0x36	; 54
     140:	07 fe       	sbrs	r0, 7
     142:	fd cf       	rjmp	.-6      	; 0x13e <_Z22eeprom_read_bytes_partmiPh+0x8c>
     144:	c1 b1       	in	r28, 0x01	; 1
     146:	c8 7f       	andi	r28, 0xF8	; 248
     148:	c0 93 b8 00 	sts	0x00B8, r28	; 0x8000b8 <twst>
     14c:	c0 33       	cpi	r28, 0x30	; 48
     14e:	b1 f2       	breq	.-84     	; 0xfc <_Z22eeprom_read_bytes_partmiPh+0x4a>
     150:	c8 33       	cpi	r28, 0x38	; 56
     152:	a1 f2       	breq	.-88     	; 0xfc <_Z22eeprom_read_bytes_partmiPh+0x4a>
     154:	c8 32       	cpi	r28, 0x28	; 40
     156:	09 f0       	breq	.+2      	; 0x15a <_Z22eeprom_read_bytes_partmiPh+0xa8>
     158:	5e c0       	rjmp	.+188    	; 0x216 <_Z22eeprom_read_bytes_partmiPh+0x164>
     15a:	63 b9       	out	0x03, r22	; 3
     15c:	46 bf       	out	0x36, r20	; 54
     15e:	06 b6       	in	r0, 0x36	; 54
     160:	07 fe       	sbrs	r0, 7
     162:	fd cf       	rjmp	.-6      	; 0x15e <_Z22eeprom_read_bytes_partmiPh+0xac>
     164:	c1 b1       	in	r28, 0x01	; 1
     166:	c8 7f       	andi	r28, 0xF8	; 248
     168:	c0 93 b8 00 	sts	0x00B8, r28	; 0x8000b8 <twst>
     16c:	c0 33       	cpi	r28, 0x30	; 48
     16e:	09 f4       	brne	.+2      	; 0x172 <_Z22eeprom_read_bytes_partmiPh+0xc0>
     170:	55 c0       	rjmp	.+170    	; 0x21c <_Z22eeprom_read_bytes_partmiPh+0x16a>
     172:	c8 33       	cpi	r28, 0x38	; 56
     174:	19 f2       	breq	.-122    	; 0xfc <_Z22eeprom_read_bytes_partmiPh+0x4a>
     176:	c8 32       	cpi	r28, 0x28	; 40
     178:	19 f0       	breq	.+6      	; 0x180 <_Z22eeprom_read_bytes_partmiPh+0xce>
     17a:	8f ef       	ldi	r24, 0xFF	; 255
     17c:	9f ef       	ldi	r25, 0xFF	; 255
     17e:	5c c0       	rjmp	.+184    	; 0x238 <_Z22eeprom_read_bytes_partmiPh+0x186>
     180:	16 bf       	out	0x36, r17	; 54
     182:	06 b6       	in	r0, 0x36	; 54
     184:	07 fe       	sbrs	r0, 7
     186:	fd cf       	rjmp	.-6      	; 0x182 <_Z22eeprom_read_bytes_partmiPh+0xd0>
     188:	f1 b0       	in	r15, 0x01	; 1
     18a:	cf 2d       	mov	r28, r15
     18c:	c8 7f       	andi	r28, 0xF8	; 248
     18e:	c0 93 b8 00 	sts	0x00B8, r28	; 0x8000b8 <twst>
     192:	c0 31       	cpi	r28, 0x10	; 16
     194:	31 f0       	breq	.+12     	; 0x1a2 <_Z22eeprom_read_bytes_partmiPh+0xf0>
     196:	c8 33       	cpi	r28, 0x38	; 56
     198:	09 f4       	brne	.+2      	; 0x19c <_Z22eeprom_read_bytes_partmiPh+0xea>
     19a:	b0 cf       	rjmp	.-160    	; 0xfc <_Z22eeprom_read_bytes_partmiPh+0x4a>
     19c:	c8 30       	cpi	r28, 0x08	; 8
     19e:	09 f0       	breq	.+2      	; 0x1a2 <_Z22eeprom_read_bytes_partmiPh+0xf0>
     1a0:	40 c0       	rjmp	.+128    	; 0x222 <_Z22eeprom_read_bytes_partmiPh+0x170>
     1a2:	b3 b9       	out	0x03, r27	; 3
     1a4:	46 bf       	out	0x36, r20	; 54
     1a6:	06 b6       	in	r0, 0x36	; 54
     1a8:	07 fe       	sbrs	r0, 7
     1aa:	fd cf       	rjmp	.-6      	; 0x1a6 <_Z22eeprom_read_bytes_partmiPh+0xf4>
     1ac:	f1 b0       	in	r15, 0x01	; 1
     1ae:	cf 2d       	mov	r28, r15
     1b0:	c8 7f       	andi	r28, 0xF8	; 248
     1b2:	c0 93 b8 00 	sts	0x00B8, r28	; 0x8000b8 <twst>
     1b6:	c0 34       	cpi	r28, 0x40	; 64
     1b8:	41 f0       	breq	.+16     	; 0x1ca <_Z22eeprom_read_bytes_partmiPh+0x118>
     1ba:	c8 34       	cpi	r28, 0x48	; 72
     1bc:	a9 f1       	breq	.+106    	; 0x228 <_Z22eeprom_read_bytes_partmiPh+0x176>
     1be:	c8 33       	cpi	r28, 0x38	; 56
     1c0:	09 f4       	brne	.+2      	; 0x1c4 <_Z22eeprom_read_bytes_partmiPh+0x112>
     1c2:	9c cf       	rjmp	.-200    	; 0xfc <_Z22eeprom_read_bytes_partmiPh+0x4a>
     1c4:	8f ef       	ldi	r24, 0xFF	; 255
     1c6:	9f ef       	ldi	r25, 0xFF	; 255
     1c8:	37 c0       	rjmp	.+110    	; 0x238 <_Z22eeprom_read_bytes_partmiPh+0x186>
     1ca:	1e 16       	cp	r1, r30
     1cc:	1f 06       	cpc	r1, r31
     1ce:	7c f5       	brge	.+94     	; 0x22e <_Z22eeprom_read_bytes_partmiPh+0x17c>
     1d0:	42 2f       	mov	r20, r18
     1d2:	53 2f       	mov	r21, r19
     1d4:	80 e0       	ldi	r24, 0x00	; 0
     1d6:	90 e0       	ldi	r25, 0x00	; 0
     1d8:	34 ec       	ldi	r19, 0xC4	; 196
     1da:	64 e8       	ldi	r22, 0x84	; 132
     1dc:	da 01       	movw	r26, r20
     1de:	e1 30       	cpi	r30, 0x01	; 1
     1e0:	f1 05       	cpc	r31, r1
     1e2:	09 f4       	brne	.+2      	; 0x1e6 <_Z22eeprom_read_bytes_partmiPh+0x134>
     1e4:	36 2f       	mov	r19, r22
     1e6:	36 bf       	out	0x36, r19	; 54
     1e8:	06 b6       	in	r0, 0x36	; 54
     1ea:	07 fe       	sbrs	r0, 7
     1ec:	fd cf       	rjmp	.-6      	; 0x1e8 <_Z22eeprom_read_bytes_partmiPh+0x136>
     1ee:	21 b1       	in	r18, 0x01	; 1
     1f0:	28 7f       	andi	r18, 0xF8	; 248
     1f2:	20 93 b8 00 	sts	0x00B8, r18	; 0x8000b8 <twst>
     1f6:	20 35       	cpi	r18, 0x50	; 80
     1f8:	19 f0       	breq	.+6      	; 0x200 <_Z22eeprom_read_bytes_partmiPh+0x14e>
     1fa:	28 35       	cpi	r18, 0x58	; 88
     1fc:	31 f1       	breq	.+76     	; 0x24a <_Z22eeprom_read_bytes_partmiPh+0x198>
     1fe:	1a c0       	rjmp	.+52     	; 0x234 <_Z22eeprom_read_bytes_partmiPh+0x182>
     200:	23 b1       	in	r18, 0x03	; 3
     202:	2c 93       	st	X, r18
     204:	4f 5f       	subi	r20, 0xFF	; 255
     206:	5f 4f       	sbci	r21, 0xFF	; 255
     208:	01 96       	adiw	r24, 0x01	; 1
     20a:	31 97       	sbiw	r30, 0x01	; 1
     20c:	39 f7       	brne	.-50     	; 0x1dc <_Z22eeprom_read_bytes_partmiPh+0x12a>
     20e:	14 c0       	rjmp	.+40     	; 0x238 <_Z22eeprom_read_bytes_partmiPh+0x186>
     210:	8f ef       	ldi	r24, 0xFF	; 255
     212:	9f ef       	ldi	r25, 0xFF	; 255
     214:	11 c0       	rjmp	.+34     	; 0x238 <_Z22eeprom_read_bytes_partmiPh+0x186>
     216:	8f ef       	ldi	r24, 0xFF	; 255
     218:	9f ef       	ldi	r25, 0xFF	; 255
     21a:	0e c0       	rjmp	.+28     	; 0x238 <_Z22eeprom_read_bytes_partmiPh+0x186>
     21c:	80 e0       	ldi	r24, 0x00	; 0
     21e:	90 e0       	ldi	r25, 0x00	; 0
     220:	0b c0       	rjmp	.+22     	; 0x238 <_Z22eeprom_read_bytes_partmiPh+0x186>
     222:	8f ef       	ldi	r24, 0xFF	; 255
     224:	9f ef       	ldi	r25, 0xFF	; 255
     226:	08 c0       	rjmp	.+16     	; 0x238 <_Z22eeprom_read_bytes_partmiPh+0x186>
     228:	80 e0       	ldi	r24, 0x00	; 0
     22a:	90 e0       	ldi	r25, 0x00	; 0
     22c:	05 c0       	rjmp	.+10     	; 0x238 <_Z22eeprom_read_bytes_partmiPh+0x186>
     22e:	80 e0       	ldi	r24, 0x00	; 0
     230:	90 e0       	ldi	r25, 0x00	; 0
     232:	02 c0       	rjmp	.+4      	; 0x238 <_Z22eeprom_read_bytes_partmiPh+0x186>
     234:	8f ef       	ldi	r24, 0xFF	; 255
     236:	9f ef       	ldi	r25, 0xFF	; 255
     238:	24 e9       	ldi	r18, 0x94	; 148
     23a:	26 bf       	out	0x36, r18	; 54
     23c:	0a c0       	rjmp	.+20     	; 0x252 <_Z22eeprom_read_bytes_partmiPh+0x1a0>
     23e:	8f ef       	ldi	r24, 0xFF	; 255
     240:	9f ef       	ldi	r25, 0xFF	; 255
     242:	07 c0       	rjmp	.+14     	; 0x252 <_Z22eeprom_read_bytes_partmiPh+0x1a0>
     244:	8f ef       	ldi	r24, 0xFF	; 255
     246:	9f ef       	ldi	r25, 0xFF	; 255
     248:	04 c0       	rjmp	.+8      	; 0x252 <_Z22eeprom_read_bytes_partmiPh+0x1a0>
     24a:	23 b1       	in	r18, 0x03	; 3
     24c:	2c 93       	st	X, r18
     24e:	01 96       	adiw	r24, 0x01	; 1
     250:	f3 cf       	rjmp	.-26     	; 0x238 <_Z22eeprom_read_bytes_partmiPh+0x186>
     252:	df 91       	pop	r29
     254:	cf 91       	pop	r28
     256:	1f 91       	pop	r17
     258:	ff 90       	pop	r15
     25a:	ef 90       	pop	r14
     25c:	08 95       	ret

0000025e <_Z17eeprom_read_bytesmiPh>:
     25e:	af 92       	push	r10
     260:	bf 92       	push	r11
     262:	cf 92       	push	r12
     264:	df 92       	push	r13
     266:	ef 92       	push	r14
     268:	ff 92       	push	r15
     26a:	0f 93       	push	r16
     26c:	1f 93       	push	r17
     26e:	cf 93       	push	r28
     270:	df 93       	push	r29
     272:	6b 01       	movw	r12, r22
     274:	7c 01       	movw	r14, r24
     276:	ea 01       	movw	r28, r20
     278:	89 01       	movw	r16, r18
     27a:	61 15       	cp	r22, r1
     27c:	71 05       	cpc	r23, r1
     27e:	81 40       	sbci	r24, 0x01	; 1
     280:	91 05       	cpc	r25, r1
     282:	18 f5       	brcc	.+70     	; 0x2ca <_Z17eeprom_read_bytesmiPh+0x6c>
     284:	ca 01       	movw	r24, r20
     286:	55 0f       	add	r21, r21
     288:	aa 0b       	sbc	r26, r26
     28a:	bb 0b       	sbc	r27, r27
     28c:	8c 0d       	add	r24, r12
     28e:	9d 1d       	adc	r25, r13
     290:	ae 1d       	adc	r26, r14
     292:	bf 1d       	adc	r27, r15
     294:	01 97       	sbiw	r24, 0x01	; 1
     296:	a1 40       	sbci	r26, 0x01	; 1
     298:	b1 05       	cpc	r27, r1
     29a:	b8 f0       	brcs	.+46     	; 0x2ca <_Z17eeprom_read_bytesmiPh+0x6c>
     29c:	aa 24       	eor	r10, r10
     29e:	bb 24       	eor	r11, r11
     2a0:	ac 18       	sub	r10, r12
     2a2:	bd 08       	sbc	r11, r13
     2a4:	98 01       	movw	r18, r16
     2a6:	a5 01       	movw	r20, r10
     2a8:	c7 01       	movw	r24, r14
     2aa:	b6 01       	movw	r22, r12
     2ac:	0e 94 59 00 	call	0xb2	; 0xb2 <_Z22eeprom_read_bytes_partmiPh>
     2b0:	98 01       	movw	r18, r16
     2b2:	2a 0d       	add	r18, r10
     2b4:	3b 1d       	adc	r19, r11
     2b6:	ae 01       	movw	r20, r28
     2b8:	4c 0d       	add	r20, r12
     2ba:	5d 1d       	adc	r21, r13
     2bc:	60 e0       	ldi	r22, 0x00	; 0
     2be:	70 e0       	ldi	r23, 0x00	; 0
     2c0:	81 e0       	ldi	r24, 0x01	; 1
     2c2:	90 e0       	ldi	r25, 0x00	; 0
     2c4:	0e 94 59 00 	call	0xb2	; 0xb2 <_Z22eeprom_read_bytes_partmiPh>
     2c8:	06 c0       	rjmp	.+12     	; 0x2d6 <_Z17eeprom_read_bytesmiPh+0x78>
     2ca:	98 01       	movw	r18, r16
     2cc:	ae 01       	movw	r20, r28
     2ce:	c7 01       	movw	r24, r14
     2d0:	b6 01       	movw	r22, r12
     2d2:	0e 94 59 00 	call	0xb2	; 0xb2 <_Z22eeprom_read_bytes_partmiPh>
     2d6:	df 91       	pop	r29
     2d8:	cf 91       	pop	r28
     2da:	1f 91       	pop	r17
     2dc:	0f 91       	pop	r16
     2de:	ff 90       	pop	r15
     2e0:	ef 90       	pop	r14
     2e2:	df 90       	pop	r13
     2e4:	cf 90       	pop	r12
     2e6:	bf 90       	pop	r11
     2e8:	af 90       	pop	r10
     2ea:	08 95       	ret

000002ec <_Z8SPI_initv>:
     2ec:	87 b3       	in	r24, 0x17	; 23
     2ee:	81 6a       	ori	r24, 0xA1	; 161
     2f0:	87 bb       	out	0x17, r24	; 23
     2f2:	88 b3       	in	r24, 0x18	; 24
     2f4:	81 61       	ori	r24, 0x11	; 17
     2f6:	88 bb       	out	0x18, r24	; 24
     2f8:	89 ed       	ldi	r24, 0xD9	; 217
     2fa:	8d b9       	out	0x0d, r24	; 13
     2fc:	08 95       	ret

000002fe <_Z9UART_initv>:
     2fe:	10 bc       	out	0x20, r1	; 32
     300:	8f e5       	ldi	r24, 0x5F	; 95
     302:	89 b9       	out	0x09, r24	; 9
     304:	88 e1       	ldi	r24, 0x18	; 24
     306:	8a b9       	out	0x0a, r24	; 10
     308:	8e e8       	ldi	r24, 0x8E	; 142
     30a:	80 bd       	out	0x20, r24	; 32
     30c:	08 95       	ret

0000030e <_Z12SPI_transferh>:
     30e:	8f b9       	out	0x0f, r24	; 15
     310:	77 9b       	sbis	0x0e, 7	; 14
     312:	fe cf       	rjmp	.-4      	; 0x310 <_Z12SPI_transferh+0x2>
     314:	08 95       	ret

00000316 <_Z11SPI_write16t>:
     316:	cf 93       	push	r28
     318:	c8 2f       	mov	r28, r24
     31a:	c0 98       	cbi	0x18, 0	; 24
     31c:	89 2f       	mov	r24, r25
     31e:	0e 94 87 01 	call	0x30e	; 0x30e <_Z12SPI_transferh>
     322:	8c 2f       	mov	r24, r28
     324:	0e 94 87 01 	call	0x30e	; 0x30e <_Z12SPI_transferh>
     328:	c0 9a       	sbi	0x18, 0	; 24
     32a:	cf 91       	pop	r28
     32c:	08 95       	ret

0000032e <_Z10Set_AD9833fj>:
     32e:	cf 92       	push	r12
     330:	df 92       	push	r13
     332:	ef 92       	push	r14
     334:	ff 92       	push	r15
     336:	0f 93       	push	r16
     338:	1f 93       	push	r17
     33a:	cf 93       	push	r28
     33c:	df 93       	push	r29
     33e:	8a 01       	movw	r16, r20
     340:	20 e0       	ldi	r18, 0x00	; 0
     342:	30 e0       	ldi	r19, 0x00	; 0
     344:	40 e8       	ldi	r20, 0x80	; 128
     346:	5d e4       	ldi	r21, 0x4D	; 77
     348:	0e 94 f4 07 	call	0xfe8	; 0xfe8 <__mulsf3>
     34c:	20 e2       	ldi	r18, 0x20	; 32
     34e:	3c eb       	ldi	r19, 0xBC	; 188
     350:	4e eb       	ldi	r20, 0xBE	; 190
     352:	5b e4       	ldi	r21, 0x4B	; 75
     354:	0e 94 5c 06 	call	0xcb8	; 0xcb8 <__divsf3>
     358:	0e 94 ce 06 	call	0xd9c	; 0xd9c <__fixsfsi>
     35c:	6b 01       	movw	r12, r22
     35e:	7c 01       	movw	r14, r24
     360:	cc 24       	eor	r12, r12
     362:	20 ec       	ldi	r18, 0xC0	; 192
     364:	d2 22       	and	r13, r18
     366:	2f e0       	ldi	r18, 0x0F	; 15
     368:	f2 22       	and	r15, r18
     36a:	0b 2e       	mov	r0, r27
     36c:	be e0       	ldi	r27, 0x0E	; 14
     36e:	f5 94       	asr	r15
     370:	e7 94       	ror	r14
     372:	d7 94       	ror	r13
     374:	c7 94       	ror	r12
     376:	ba 95       	dec	r27
     378:	d1 f7       	brne	.-12     	; 0x36e <_Z10Set_AD9833fj+0x40>
     37a:	b0 2d       	mov	r27, r0
     37c:	eb 01       	movw	r28, r22
     37e:	df 73       	andi	r29, 0x3F	; 63
     380:	80 e0       	ldi	r24, 0x00	; 0
     382:	91 e2       	ldi	r25, 0x21	; 33
     384:	0e 94 8b 01 	call	0x316	; 0x316 <_Z11SPI_write16t>
     388:	ce 01       	movw	r24, r28
     38a:	90 64       	ori	r25, 0x40	; 64
     38c:	0e 94 8b 01 	call	0x316	; 0x316 <_Z11SPI_write16t>
     390:	c6 01       	movw	r24, r12
     392:	90 64       	ori	r25, 0x40	; 64
     394:	0e 94 8b 01 	call	0x316	; 0x316 <_Z11SPI_write16t>
     398:	c8 01       	movw	r24, r16
     39a:	9f 70       	andi	r25, 0x0F	; 15
     39c:	90 6c       	ori	r25, 0xC0	; 192
     39e:	0e 94 8b 01 	call	0x316	; 0x316 <_Z11SPI_write16t>
     3a2:	80 e0       	ldi	r24, 0x00	; 0
     3a4:	90 e2       	ldi	r25, 0x20	; 32
     3a6:	0e 94 8b 01 	call	0x316	; 0x316 <_Z11SPI_write16t>
     3aa:	df 91       	pop	r29
     3ac:	cf 91       	pop	r28
     3ae:	1f 91       	pop	r17
     3b0:	0f 91       	pop	r16
     3b2:	ff 90       	pop	r15
     3b4:	ef 90       	pop	r14
     3b6:	df 90       	pop	r13
     3b8:	cf 90       	pop	r12
     3ba:	08 95       	ret

000003bc <_Z8getphasefff>:
     3bc:	4f 92       	push	r4
     3be:	5f 92       	push	r5
     3c0:	6f 92       	push	r6
     3c2:	7f 92       	push	r7
     3c4:	8f 92       	push	r8
     3c6:	9f 92       	push	r9
     3c8:	af 92       	push	r10
     3ca:	bf 92       	push	r11
     3cc:	cf 92       	push	r12
     3ce:	df 92       	push	r13
     3d0:	ef 92       	push	r14
     3d2:	ff 92       	push	r15
     3d4:	0f 93       	push	r16
     3d6:	1f 93       	push	r17
     3d8:	cf 93       	push	r28
     3da:	df 93       	push	r29
     3dc:	00 d0       	rcall	.+0      	; 0x3de <_Z8getphasefff+0x22>
     3de:	00 d0       	rcall	.+0      	; 0x3e0 <_Z8getphasefff+0x24>
     3e0:	cd b7       	in	r28, 0x3d	; 61
     3e2:	de b7       	in	r29, 0x3e	; 62
     3e4:	2b 01       	movw	r4, r22
     3e6:	3c 01       	movw	r6, r24
     3e8:	49 01       	movw	r8, r18
     3ea:	5a 01       	movw	r10, r20
     3ec:	67 01       	movw	r12, r14
     3ee:	78 01       	movw	r14, r16
     3f0:	60 e0       	ldi	r22, 0x00	; 0
     3f2:	70 e0       	ldi	r23, 0x00	; 0
     3f4:	80 e8       	ldi	r24, 0x80	; 128
     3f6:	9f e3       	ldi	r25, 0x3F	; 63
     3f8:	0e 94 5c 06 	call	0xcb8	; 0xcb8 <__divsf3>
     3fc:	69 83       	std	Y+1, r22	; 0x01
     3fe:	7a 83       	std	Y+2, r23	; 0x02
     400:	8b 83       	std	Y+3, r24	; 0x03
     402:	9c 83       	std	Y+4, r25	; 0x04
     404:	20 e0       	ldi	r18, 0x00	; 0
     406:	34 e2       	ldi	r19, 0x24	; 36
     408:	44 e7       	ldi	r20, 0x74	; 116
     40a:	59 e4       	ldi	r21, 0x49	; 73
     40c:	c7 01       	movw	r24, r14
     40e:	b6 01       	movw	r22, r12
     410:	0e 94 5c 06 	call	0xcb8	; 0xcb8 <__divsf3>
     414:	29 81       	ldd	r18, Y+1	; 0x01
     416:	3a 81       	ldd	r19, Y+2	; 0x02
     418:	4b 81       	ldd	r20, Y+3	; 0x03
     41a:	5c 81       	ldd	r21, Y+4	; 0x04
     41c:	0e 94 4c 07 	call	0xe98	; 0xe98 <fmod>
     420:	9b 01       	movw	r18, r22
     422:	ac 01       	movw	r20, r24
     424:	0e 94 f0 05 	call	0xbe0	; 0xbe0 <__addsf3>
     428:	20 ed       	ldi	r18, 0xD0	; 208
     42a:	3f e0       	ldi	r19, 0x0F	; 15
     42c:	49 e4       	ldi	r20, 0x49	; 73
     42e:	50 e4       	ldi	r21, 0x40	; 64
     430:	0e 94 f4 07 	call	0xfe8	; 0xfe8 <__mulsf3>
     434:	a5 01       	movw	r20, r10
     436:	94 01       	movw	r18, r8
     438:	0e 94 f4 07 	call	0xfe8	; 0xfe8 <__mulsf3>
     43c:	6b 01       	movw	r12, r22
     43e:	7c 01       	movw	r14, r24
     440:	2c e8       	ldi	r18, 0x8C	; 140
     442:	39 ef       	ldi	r19, 0xF9	; 249
     444:	42 e2       	ldi	r20, 0x22	; 34
     446:	54 e4       	ldi	r21, 0x44	; 68
     448:	c3 01       	movw	r24, r6
     44a:	b2 01       	movw	r22, r4
     44c:	0e 94 5c 06 	call	0xcb8	; 0xcb8 <__divsf3>
     450:	9b 01       	movw	r18, r22
     452:	ac 01       	movw	r20, r24
     454:	c7 01       	movw	r24, r14
     456:	b6 01       	movw	r22, r12
     458:	0e 94 f0 05 	call	0xbe0	; 0xbe0 <__addsf3>
     45c:	20 e0       	ldi	r18, 0x00	; 0
     45e:	30 e0       	ldi	r19, 0x00	; 0
     460:	40 e0       	ldi	r20, 0x00	; 0
     462:	55 e4       	ldi	r21, 0x45	; 69
     464:	0e 94 f4 07 	call	0xfe8	; 0xfe8 <__mulsf3>
     468:	20 ed       	ldi	r18, 0xD0	; 208
     46a:	3f e0       	ldi	r19, 0x0F	; 15
     46c:	49 e4       	ldi	r20, 0x49	; 73
     46e:	50 e4       	ldi	r21, 0x40	; 64
     470:	0e 94 5c 06 	call	0xcb8	; 0xcb8 <__divsf3>
     474:	0e 94 d5 06 	call	0xdaa	; 0xdaa <__fixunssfsi>
     478:	cb 01       	movw	r24, r22
     47a:	0f 90       	pop	r0
     47c:	0f 90       	pop	r0
     47e:	0f 90       	pop	r0
     480:	0f 90       	pop	r0
     482:	df 91       	pop	r29
     484:	cf 91       	pop	r28
     486:	1f 91       	pop	r17
     488:	0f 91       	pop	r16
     48a:	ff 90       	pop	r15
     48c:	ef 90       	pop	r14
     48e:	df 90       	pop	r13
     490:	cf 90       	pop	r12
     492:	bf 90       	pop	r11
     494:	af 90       	pop	r10
     496:	9f 90       	pop	r9
     498:	8f 90       	pop	r8
     49a:	7f 90       	pop	r7
     49c:	6f 90       	pop	r6
     49e:	5f 90       	pop	r5
     4a0:	4f 90       	pop	r4
     4a2:	08 95       	ret

000004a4 <main>:
		default : break;
	}
}
int main(void)
{
	UART_init();
     4a4:	0e 94 7f 01 	call	0x2fe	; 0x2fe <_Z9UART_initv>
	SPI_init();
     4a8:	0e 94 76 01 	call	0x2ec	; 0x2ec <_Z8SPI_initv>
	DDRA=(1<<PINA0)|(1<<PINA1)|(1<<PINA2);			//output pins for LEDs	
     4ac:	87 e0       	ldi	r24, 0x07	; 7
     4ae:	8a bb       	out	0x1a, r24	; 26
	TCCR1A=0;
     4b0:	1f bc       	out	0x2f, r1	; 47
	PORTA=0;
     4b2:	1b ba       	out	0x1b, r1	; 27
	ioinit();
     4b4:	0e 94 55 00 	call	0xaa	; 0xaa <_Z6ioinitv>
	DDRB|=(1<<PINB1);
     4b8:	b9 9a       	sbi	0x17, 1	; 23
	PORTB|=(1<<PINB1);
     4ba:	c1 9a       	sbi	0x18, 1	; 24
     4bc:	8f ef       	ldi	r24, 0xFF	; 255
     4be:	9f e8       	ldi	r25, 0x8F	; 143
     4c0:	01 97       	sbiw	r24, 0x01	; 1
     4c2:	f1 f7       	brne	.-4      	; 0x4c0 <main+0x1c>
     4c4:	00 c0       	rjmp	.+0      	; 0x4c6 <main+0x22>
     4c6:	00 00       	nop
	//Beacon Section 
	_delay_ms(10);
	SPI_write16(0x100);
     4c8:	80 e0       	ldi	r24, 0x00	; 0
     4ca:	91 e0       	ldi	r25, 0x01	; 1
     4cc:	0e 94 8b 01 	call	0x316	; 0x316 <_Z11SPI_write16t>
	Set_AD9833(2000,0);
     4d0:	40 e0       	ldi	r20, 0x00	; 0
     4d2:	50 e0       	ldi	r21, 0x00	; 0
     4d4:	60 e0       	ldi	r22, 0x00	; 0
     4d6:	70 e0       	ldi	r23, 0x00	; 0
     4d8:	8a ef       	ldi	r24, 0xFA	; 250
     4da:	94 e4       	ldi	r25, 0x44	; 68
     4dc:	0e 94 97 01 	call	0x32e	; 0x32e <_Z10Set_AD9833fj>

// }
// 
//  }
// 	
}
     4e0:	80 e0       	ldi	r24, 0x00	; 0
     4e2:	90 e0       	ldi	r25, 0x00	; 0
     4e4:	08 95       	ret

000004e6 <__vector_7>:

ISR(TIMER1_COMPA_vect)
{
     4e6:	1f 92       	push	r1
     4e8:	0f 92       	push	r0
     4ea:	0f b6       	in	r0, 0x3f	; 63
     4ec:	0f 92       	push	r0
     4ee:	11 24       	eor	r1, r1
     4f0:	8f 92       	push	r8
     4f2:	9f 92       	push	r9
     4f4:	af 92       	push	r10
     4f6:	bf 92       	push	r11
     4f8:	ef 92       	push	r14
     4fa:	ff 92       	push	r15
     4fc:	0f 93       	push	r16
     4fe:	1f 93       	push	r17
     500:	2f 93       	push	r18
     502:	3f 93       	push	r19
     504:	4f 93       	push	r20
     506:	5f 93       	push	r21
     508:	6f 93       	push	r22
     50a:	7f 93       	push	r23
     50c:	8f 93       	push	r24
     50e:	9f 93       	push	r25
     510:	af 93       	push	r26
     512:	bf 93       	push	r27
     514:	cf 93       	push	r28
     516:	df 93       	push	r29
     518:	ef 93       	push	r30
     51a:	ff 93       	push	r31
// 	}
// 	else
// 	{
// 		notSet++;
// 	}
	Set_AD9833(global_frequency,next_phase);	     
     51c:	c0 91 a2 00 	lds	r28, 0x00A2	; 0x8000a2 <next_phase>
     520:	d0 91 a3 00 	lds	r29, 0x00A3	; 0x8000a3 <next_phase+0x1>
     524:	60 91 b0 00 	lds	r22, 0x00B0	; 0x8000b0 <global_frequency>
     528:	70 91 b1 00 	lds	r23, 0x00B1	; 0x8000b1 <global_frequency+0x1>
     52c:	07 2e       	mov	r0, r23
     52e:	00 0c       	add	r0, r0
     530:	88 0b       	sbc	r24, r24
     532:	99 0b       	sbc	r25, r25
     534:	0e 94 06 07 	call	0xe0c	; 0xe0c <__floatsisf>
     538:	ae 01       	movw	r20, r28
     53a:	0e 94 97 01 	call	0x32e	; 0x32e <_Z10Set_AD9833fj>
	prev_phase=next_phase;
     53e:	80 91 a2 00 	lds	r24, 0x00A2	; 0x8000a2 <next_phase>
     542:	90 91 a3 00 	lds	r25, 0x00A3	; 0x8000a3 <next_phase+0x1>
     546:	90 93 a5 00 	sts	0x00A5, r25	; 0x8000a5 <prev_phase+0x1>
     54a:	80 93 a4 00 	sts	0x00A4, r24	; 0x8000a4 <prev_phase>
	prev_freq = global_frequency;	
     54e:	60 91 b0 00 	lds	r22, 0x00B0	; 0x8000b0 <global_frequency>
     552:	70 91 b1 00 	lds	r23, 0x00B1	; 0x8000b1 <global_frequency+0x1>
     556:	07 2e       	mov	r0, r23
     558:	00 0c       	add	r0, r0
     55a:	88 0b       	sbc	r24, r24
     55c:	99 0b       	sbc	r25, r25
     55e:	0e 94 06 07 	call	0xe0c	; 0xe0c <__floatsisf>
     562:	60 93 a8 00 	sts	0x00A8, r22	; 0x8000a8 <prev_freq>
     566:	70 93 a9 00 	sts	0x00A9, r23	; 0x8000a9 <prev_freq+0x1>
     56a:	80 93 aa 00 	sts	0x00AA, r24	; 0x8000aa <prev_freq+0x2>
     56e:	90 93 ab 00 	sts	0x00AB, r25	; 0x8000ab <prev_freq+0x3>
// 	if(cont==319) global_frequency = freqRY1;
// 	else if(cont==639) global_frequency = freqBY1;
// 	else if(cont==959) global_frequency = freqY1;
	global_frequency=0;
     572:	10 92 b1 00 	sts	0x00B1, r1	; 0x8000b1 <global_frequency+0x1>
     576:	10 92 b0 00 	sts	0x00B0, r1	; 0x8000b0 <global_frequency>
	byte[0]=0; byte[1]=0;
     57a:	c0 ea       	ldi	r28, 0xA0	; 160
     57c:	d0 e0       	ldi	r29, 0x00	; 0
     57e:	18 82       	st	Y, r1
     580:	19 82       	std	Y+1, r1	; 0x01
	eeprom_read_bytes(write_addr+(totcont*2),2,byte);
     582:	40 91 ac 00 	lds	r20, 0x00AC	; 0x8000ac <totcont>
     586:	50 91 ad 00 	lds	r21, 0x00AD	; 0x8000ad <totcont+0x1>
     58a:	60 91 ae 00 	lds	r22, 0x00AE	; 0x8000ae <totcont+0x2>
     58e:	70 91 af 00 	lds	r23, 0x00AF	; 0x8000af <totcont+0x3>
     592:	80 91 b4 00 	lds	r24, 0x00B4	; 0x8000b4 <write_addr>
     596:	90 91 b5 00 	lds	r25, 0x00B5	; 0x8000b5 <write_addr+0x1>
     59a:	a0 91 b6 00 	lds	r26, 0x00B6	; 0x8000b6 <write_addr+0x2>
     59e:	b0 91 b7 00 	lds	r27, 0x00B7	; 0x8000b7 <write_addr+0x3>
     5a2:	44 0f       	add	r20, r20
     5a4:	55 1f       	adc	r21, r21
     5a6:	66 1f       	adc	r22, r22
     5a8:	77 1f       	adc	r23, r23
     5aa:	8a 01       	movw	r16, r20
     5ac:	9b 01       	movw	r18, r22
     5ae:	08 0f       	add	r16, r24
     5b0:	19 1f       	adc	r17, r25
     5b2:	2a 1f       	adc	r18, r26
     5b4:	3b 1f       	adc	r19, r27
     5b6:	c9 01       	movw	r24, r18
     5b8:	b8 01       	movw	r22, r16
     5ba:	9e 01       	movw	r18, r28
     5bc:	42 e0       	ldi	r20, 0x02	; 2
     5be:	50 e0       	ldi	r21, 0x00	; 0
     5c0:	0e 94 2f 01 	call	0x25e	; 0x25e <_Z17eeprom_read_bytesmiPh>
	global_frequency|=(byte[0]<<8);
     5c4:	80 91 b0 00 	lds	r24, 0x00B0	; 0x8000b0 <global_frequency>
     5c8:	90 91 b1 00 	lds	r25, 0x00B1	; 0x8000b1 <global_frequency+0x1>
     5cc:	28 81       	ld	r18, Y
     5ce:	92 2b       	or	r25, r18
     5d0:	90 93 b1 00 	sts	0x00B1, r25	; 0x8000b1 <global_frequency+0x1>
     5d4:	80 93 b0 00 	sts	0x00B0, r24	; 0x8000b0 <global_frequency>
	global_frequency|=byte[1];
     5d8:	80 91 b0 00 	lds	r24, 0x00B0	; 0x8000b0 <global_frequency>
     5dc:	90 91 b1 00 	lds	r25, 0x00B1	; 0x8000b1 <global_frequency+0x1>
     5e0:	29 81       	ldd	r18, Y+1	; 0x01
     5e2:	82 2b       	or	r24, r18
     5e4:	90 93 b1 00 	sts	0x00B1, r25	; 0x8000b1 <global_frequency+0x1>
     5e8:	80 93 b0 00 	sts	0x00B0, r24	; 0x8000b0 <global_frequency>
 	totcont++;
     5ec:	80 91 ac 00 	lds	r24, 0x00AC	; 0x8000ac <totcont>
     5f0:	90 91 ad 00 	lds	r25, 0x00AD	; 0x8000ad <totcont+0x1>
     5f4:	a0 91 ae 00 	lds	r26, 0x00AE	; 0x8000ae <totcont+0x2>
     5f8:	b0 91 af 00 	lds	r27, 0x00AF	; 0x8000af <totcont+0x3>
     5fc:	01 96       	adiw	r24, 0x01	; 1
     5fe:	a1 1d       	adc	r26, r1
     600:	b1 1d       	adc	r27, r1
     602:	80 93 ac 00 	sts	0x00AC, r24	; 0x8000ac <totcont>
     606:	90 93 ad 00 	sts	0x00AD, r25	; 0x8000ad <totcont+0x1>
     60a:	a0 93 ae 00 	sts	0x00AE, r26	; 0x8000ae <totcont+0x2>
     60e:	b0 93 af 00 	sts	0x00AF, r27	; 0x8000af <totcont+0x3>
// 			else if(t<32) global_frequency = freqRY2;
// 			else if(t<48) global_frequency = freqBY2;
// 			else if(t<64) global_frequency = freqY2;
// 		}
// 	}
	next_phase = getphase(prev_phase,prev_freq,(532));		//calculation of phase to be added in new wave
     612:	80 90 a8 00 	lds	r8, 0x00A8	; 0x8000a8 <prev_freq>
     616:	90 90 a9 00 	lds	r9, 0x00A9	; 0x8000a9 <prev_freq+0x1>
     61a:	a0 90 aa 00 	lds	r10, 0x00AA	; 0x8000aa <prev_freq+0x2>
     61e:	b0 90 ab 00 	lds	r11, 0x00AB	; 0x8000ab <prev_freq+0x3>
     622:	60 91 a4 00 	lds	r22, 0x00A4	; 0x8000a4 <prev_phase>
     626:	70 91 a5 00 	lds	r23, 0x00A5	; 0x8000a5 <prev_phase+0x1>
     62a:	80 e0       	ldi	r24, 0x00	; 0
     62c:	90 e0       	ldi	r25, 0x00	; 0
     62e:	0e 94 04 07 	call	0xe08	; 0xe08 <__floatunsisf>
     632:	e1 2c       	mov	r14, r1
     634:	f1 2c       	mov	r15, r1
     636:	05 e0       	ldi	r16, 0x05	; 5
     638:	14 e4       	ldi	r17, 0x44	; 68
     63a:	a5 01       	movw	r20, r10
     63c:	94 01       	movw	r18, r8
     63e:	0e 94 de 01 	call	0x3bc	; 0x3bc <_Z8getphasefff>
     642:	90 93 a3 00 	sts	0x00A3, r25	; 0x8000a3 <next_phase+0x1>
     646:	80 93 a2 00 	sts	0x00A2, r24	; 0x8000a2 <next_phase>
	cont++;
     64a:	80 91 a6 00 	lds	r24, 0x00A6	; 0x8000a6 <cont>
     64e:	90 91 a7 00 	lds	r25, 0x00A7	; 0x8000a7 <cont+0x1>
     652:	01 96       	adiw	r24, 0x01	; 1
     654:	90 93 a7 00 	sts	0x00A7, r25	; 0x8000a7 <cont+0x1>
     658:	80 93 a6 00 	sts	0x00A6, r24	; 0x8000a6 <cont>
// 	if (global_frequency==prev_freq) compare=1;
// 	else compare =0;
    //if (cont==1280) i++;
}
     65c:	ff 91       	pop	r31
     65e:	ef 91       	pop	r30
     660:	df 91       	pop	r29
     662:	cf 91       	pop	r28
     664:	bf 91       	pop	r27
     666:	af 91       	pop	r26
     668:	9f 91       	pop	r25
     66a:	8f 91       	pop	r24
     66c:	7f 91       	pop	r23
     66e:	6f 91       	pop	r22
     670:	5f 91       	pop	r21
     672:	4f 91       	pop	r20
     674:	3f 91       	pop	r19
     676:	2f 91       	pop	r18
     678:	1f 91       	pop	r17
     67a:	0f 91       	pop	r16
     67c:	ff 90       	pop	r15
     67e:	ef 90       	pop	r14
     680:	bf 90       	pop	r11
     682:	af 90       	pop	r10
     684:	9f 90       	pop	r9
     686:	8f 90       	pop	r8
     688:	0f 90       	pop	r0
     68a:	0f be       	out	0x3f, r0	; 63
     68c:	0f 90       	pop	r0
     68e:	1f 90       	pop	r1
     690:	18 95       	reti

00000692 <__vector_12>:
	
     692:	18 95       	reti

00000694 <_GLOBAL__sub_I_twst>:
     694:	4f 92       	push	r4
     696:	5f 92       	push	r5
     698:	6f 92       	push	r6
     69a:	7f 92       	push	r7
     69c:	8f 92       	push	r8
     69e:	9f 92       	push	r9
     6a0:	af 92       	push	r10
     6a2:	bf 92       	push	r11
     6a4:	cf 92       	push	r12
     6a6:	df 92       	push	r13
     6a8:	ef 92       	push	r14
     6aa:	ff 92       	push	r15
     6ac:	cf 93       	push	r28
     6ae:	df 93       	push	r29
     6b0:	cd b7       	in	r28, 0x3d	; 61
     6b2:	de b7       	in	r29, 0x3e	; 62
     6b4:	28 97       	sbiw	r28, 0x08	; 8
     6b6:	0f b6       	in	r0, 0x3f	; 63
     6b8:	f8 94       	cli
     6ba:	de bf       	out	0x3e, r29	; 62
     6bc:	0f be       	out	0x3f, r0	; 63
     6be:	cd bf       	out	0x3d, r28	; 61
uint8_t twst;
static uint8_t eeprom_addr = 0b10100110;	/* E2 E1 E0 = 0 0 0 */
volatile uint32_t write_addr=0;

int TEMP = ((((F_CPU)/(TIMER1_PRESCALER*1000000))*560.5)-1);			//Counter Cycles for required time560.5
int TICKS = 65535-TEMP;												//Value for TCNT1 to implement timing by overflow
     6c0:	80 91 66 00 	lds	r24, 0x0066	; 0x800066 <TEMP>
     6c4:	90 91 67 00 	lds	r25, 0x0067	; 0x800067 <TEMP+0x1>
     6c8:	80 95       	com	r24
     6ca:	90 95       	com	r25
     6cc:	90 93 b3 00 	sts	0x00B3, r25	; 0x8000b3 <TICKS+0x1>
     6d0:	80 93 b2 00 	sts	0x00B2, r24	; 0x8000b2 <TICKS>
	return (unsigned int) ph;
}

//color conversion from RGB to Y/RY/BY
int R1=0,G1=0,B1=0;
float Y1 = 16.0 + (.003906 * ((65.738 * R1) + (129.057 * G1) + (25.064 * B1)));
     6d4:	60 91 9e 00 	lds	r22, 0x009E	; 0x80009e <R1>
     6d8:	70 91 9f 00 	lds	r23, 0x009F	; 0x80009f <R1+0x1>
     6dc:	07 2e       	mov	r0, r23
     6de:	00 0c       	add	r0, r0
     6e0:	88 0b       	sbc	r24, r24
     6e2:	99 0b       	sbc	r25, r25
     6e4:	0e 94 06 07 	call	0xe0c	; 0xe0c <__floatsisf>
     6e8:	69 83       	std	Y+1, r22	; 0x01
     6ea:	7a 83       	std	Y+2, r23	; 0x02
     6ec:	8b 83       	std	Y+3, r24	; 0x03
     6ee:	9c 83       	std	Y+4, r25	; 0x04
     6f0:	60 91 9c 00 	lds	r22, 0x009C	; 0x80009c <G1>
     6f4:	70 91 9d 00 	lds	r23, 0x009D	; 0x80009d <G1+0x1>
     6f8:	07 2e       	mov	r0, r23
     6fa:	00 0c       	add	r0, r0
     6fc:	88 0b       	sbc	r24, r24
     6fe:	99 0b       	sbc	r25, r25
     700:	0e 94 06 07 	call	0xe0c	; 0xe0c <__floatsisf>
     704:	6d 83       	std	Y+5, r22	; 0x05
     706:	7e 83       	std	Y+6, r23	; 0x06
     708:	8f 83       	std	Y+7, r24	; 0x07
     70a:	98 87       	std	Y+8, r25	; 0x08
     70c:	60 91 9a 00 	lds	r22, 0x009A	; 0x80009a <B1>
     710:	70 91 9b 00 	lds	r23, 0x009B	; 0x80009b <B1+0x1>
     714:	07 2e       	mov	r0, r23
     716:	00 0c       	add	r0, r0
     718:	88 0b       	sbc	r24, r24
     71a:	99 0b       	sbc	r25, r25
     71c:	0e 94 06 07 	call	0xe0c	; 0xe0c <__floatsisf>
     720:	6b 01       	movw	r12, r22
     722:	7c 01       	movw	r14, r24
     724:	2b ed       	ldi	r18, 0xDB	; 219
     726:	39 e7       	ldi	r19, 0x79	; 121
     728:	43 e8       	ldi	r20, 0x83	; 131
     72a:	52 e4       	ldi	r21, 0x42	; 66
     72c:	69 81       	ldd	r22, Y+1	; 0x01
     72e:	7a 81       	ldd	r23, Y+2	; 0x02
     730:	8b 81       	ldd	r24, Y+3	; 0x03
     732:	9c 81       	ldd	r25, Y+4	; 0x04
     734:	0e 94 f4 07 	call	0xfe8	; 0xfe8 <__mulsf3>
     738:	4b 01       	movw	r8, r22
     73a:	5c 01       	movw	r10, r24
     73c:	28 e9       	ldi	r18, 0x98	; 152
     73e:	3e e0       	ldi	r19, 0x0E	; 14
     740:	41 e0       	ldi	r20, 0x01	; 1
     742:	53 e4       	ldi	r21, 0x43	; 67
     744:	6d 81       	ldd	r22, Y+5	; 0x05
     746:	7e 81       	ldd	r23, Y+6	; 0x06
     748:	8f 81       	ldd	r24, Y+7	; 0x07
     74a:	98 85       	ldd	r25, Y+8	; 0x08
     74c:	0e 94 f4 07 	call	0xfe8	; 0xfe8 <__mulsf3>
     750:	9b 01       	movw	r18, r22
     752:	ac 01       	movw	r20, r24
     754:	c5 01       	movw	r24, r10
     756:	b4 01       	movw	r22, r8
     758:	0e 94 f0 05 	call	0xbe0	; 0xbe0 <__addsf3>
     75c:	4b 01       	movw	r8, r22
     75e:	5c 01       	movw	r10, r24
     760:	22 e1       	ldi	r18, 0x12	; 18
     762:	33 e8       	ldi	r19, 0x83	; 131
     764:	48 ec       	ldi	r20, 0xC8	; 200
     766:	51 e4       	ldi	r21, 0x41	; 65
     768:	c7 01       	movw	r24, r14
     76a:	b6 01       	movw	r22, r12
     76c:	0e 94 f4 07 	call	0xfe8	; 0xfe8 <__mulsf3>
     770:	9b 01       	movw	r18, r22
     772:	ac 01       	movw	r20, r24
     774:	c5 01       	movw	r24, r10
     776:	b4 01       	movw	r22, r8
     778:	0e 94 f0 05 	call	0xbe0	; 0xbe0 <__addsf3>
     77c:	2e ec       	ldi	r18, 0xCE	; 206
     77e:	3b ef       	ldi	r19, 0xFB	; 251
     780:	4f e7       	ldi	r20, 0x7F	; 127
     782:	5b e3       	ldi	r21, 0x3B	; 59
     784:	0e 94 f4 07 	call	0xfe8	; 0xfe8 <__mulsf3>
     788:	20 e0       	ldi	r18, 0x00	; 0
     78a:	30 e0       	ldi	r19, 0x00	; 0
     78c:	40 e8       	ldi	r20, 0x80	; 128
     78e:	51 e4       	ldi	r21, 0x41	; 65
     790:	0e 94 f0 05 	call	0xbe0	; 0xbe0 <__addsf3>
     794:	2b 01       	movw	r4, r22
     796:	3c 01       	movw	r6, r24
     798:	60 93 96 00 	sts	0x0096, r22	; 0x800096 <Y1>
     79c:	70 93 97 00 	sts	0x0097, r23	; 0x800097 <Y1+0x1>
     7a0:	80 93 98 00 	sts	0x0098, r24	; 0x800098 <Y1+0x2>
     7a4:	90 93 99 00 	sts	0x0099, r25	; 0x800099 <Y1+0x3>
float RY1 = 128.0 + (.003906 * ((112.439 * R1) + (-94.154 * G1) + (-18.285 * B1)));
     7a8:	25 ec       	ldi	r18, 0xC5	; 197
     7aa:	30 ee       	ldi	r19, 0xE0	; 224
     7ac:	40 ee       	ldi	r20, 0xE0	; 224
     7ae:	52 e4       	ldi	r21, 0x42	; 66
     7b0:	69 81       	ldd	r22, Y+1	; 0x01
     7b2:	7a 81       	ldd	r23, Y+2	; 0x02
     7b4:	8b 81       	ldd	r24, Y+3	; 0x03
     7b6:	9c 81       	ldd	r25, Y+4	; 0x04
     7b8:	0e 94 f4 07 	call	0xfe8	; 0xfe8 <__mulsf3>
     7bc:	4b 01       	movw	r8, r22
     7be:	5c 01       	movw	r10, r24
     7c0:	29 ed       	ldi	r18, 0xD9	; 217
     7c2:	3e e4       	ldi	r19, 0x4E	; 78
     7c4:	4c eb       	ldi	r20, 0xBC	; 188
     7c6:	52 ec       	ldi	r21, 0xC2	; 194
     7c8:	6d 81       	ldd	r22, Y+5	; 0x05
     7ca:	7e 81       	ldd	r23, Y+6	; 0x06
     7cc:	8f 81       	ldd	r24, Y+7	; 0x07
     7ce:	98 85       	ldd	r25, Y+8	; 0x08
     7d0:	0e 94 f4 07 	call	0xfe8	; 0xfe8 <__mulsf3>
     7d4:	9b 01       	movw	r18, r22
     7d6:	ac 01       	movw	r20, r24
     7d8:	c5 01       	movw	r24, r10
     7da:	b4 01       	movw	r22, r8
     7dc:	0e 94 f0 05 	call	0xbe0	; 0xbe0 <__addsf3>
     7e0:	4b 01       	movw	r8, r22
     7e2:	5c 01       	movw	r10, r24
     7e4:	2e ea       	ldi	r18, 0xAE	; 174
     7e6:	37 e4       	ldi	r19, 0x47	; 71
     7e8:	42 e9       	ldi	r20, 0x92	; 146
     7ea:	51 ec       	ldi	r21, 0xC1	; 193
     7ec:	c7 01       	movw	r24, r14
     7ee:	b6 01       	movw	r22, r12
     7f0:	0e 94 f4 07 	call	0xfe8	; 0xfe8 <__mulsf3>
     7f4:	9b 01       	movw	r18, r22
     7f6:	ac 01       	movw	r20, r24
     7f8:	c5 01       	movw	r24, r10
     7fa:	b4 01       	movw	r22, r8
     7fc:	0e 94 f0 05 	call	0xbe0	; 0xbe0 <__addsf3>
     800:	2e ec       	ldi	r18, 0xCE	; 206
     802:	3b ef       	ldi	r19, 0xFB	; 251
     804:	4f e7       	ldi	r20, 0x7F	; 127
     806:	5b e3       	ldi	r21, 0x3B	; 59
     808:	0e 94 f4 07 	call	0xfe8	; 0xfe8 <__mulsf3>
     80c:	20 e0       	ldi	r18, 0x00	; 0
     80e:	30 e0       	ldi	r19, 0x00	; 0
     810:	40 e0       	ldi	r20, 0x00	; 0
     812:	53 e4       	ldi	r21, 0x43	; 67
     814:	0e 94 f0 05 	call	0xbe0	; 0xbe0 <__addsf3>
     818:	4b 01       	movw	r8, r22
     81a:	5c 01       	movw	r10, r24
     81c:	60 93 92 00 	sts	0x0092, r22	; 0x800092 <RY1>
     820:	70 93 93 00 	sts	0x0093, r23	; 0x800093 <RY1+0x1>
     824:	80 93 94 00 	sts	0x0094, r24	; 0x800094 <RY1+0x2>
     828:	90 93 95 00 	sts	0x0095, r25	; 0x800095 <RY1+0x3>
float BY1 = 128.0 + (.003906 * ((-37.945 * R1) + (-74.494 * G1) + (112.439 * B1)));
     82c:	2e ea       	ldi	r18, 0xAE	; 174
     82e:	37 ec       	ldi	r19, 0xC7	; 199
     830:	47 e1       	ldi	r20, 0x17	; 23
     832:	52 ec       	ldi	r21, 0xC2	; 194
     834:	69 81       	ldd	r22, Y+1	; 0x01
     836:	7a 81       	ldd	r23, Y+2	; 0x02
     838:	8b 81       	ldd	r24, Y+3	; 0x03
     83a:	9c 81       	ldd	r25, Y+4	; 0x04
     83c:	0e 94 f4 07 	call	0xfe8	; 0xfe8 <__mulsf3>
     840:	69 83       	std	Y+1, r22	; 0x01
     842:	7a 83       	std	Y+2, r23	; 0x02
     844:	8b 83       	std	Y+3, r24	; 0x03
     846:	9c 83       	std	Y+4, r25	; 0x04
     848:	2e ee       	ldi	r18, 0xEE	; 238
     84a:	3c ef       	ldi	r19, 0xFC	; 252
     84c:	44 e9       	ldi	r20, 0x94	; 148
     84e:	52 ec       	ldi	r21, 0xC2	; 194
     850:	6d 81       	ldd	r22, Y+5	; 0x05
     852:	7e 81       	ldd	r23, Y+6	; 0x06
     854:	8f 81       	ldd	r24, Y+7	; 0x07
     856:	98 85       	ldd	r25, Y+8	; 0x08
     858:	0e 94 f4 07 	call	0xfe8	; 0xfe8 <__mulsf3>
     85c:	9b 01       	movw	r18, r22
     85e:	ac 01       	movw	r20, r24
     860:	69 81       	ldd	r22, Y+1	; 0x01
     862:	7a 81       	ldd	r23, Y+2	; 0x02
     864:	8b 81       	ldd	r24, Y+3	; 0x03
     866:	9c 81       	ldd	r25, Y+4	; 0x04
     868:	0e 94 f0 05 	call	0xbe0	; 0xbe0 <__addsf3>
     86c:	69 83       	std	Y+1, r22	; 0x01
     86e:	7a 83       	std	Y+2, r23	; 0x02
     870:	8b 83       	std	Y+3, r24	; 0x03
     872:	9c 83       	std	Y+4, r25	; 0x04
     874:	25 ec       	ldi	r18, 0xC5	; 197
     876:	30 ee       	ldi	r19, 0xE0	; 224
     878:	40 ee       	ldi	r20, 0xE0	; 224
     87a:	52 e4       	ldi	r21, 0x42	; 66
     87c:	c7 01       	movw	r24, r14
     87e:	b6 01       	movw	r22, r12
     880:	0e 94 f4 07 	call	0xfe8	; 0xfe8 <__mulsf3>
     884:	9b 01       	movw	r18, r22
     886:	ac 01       	movw	r20, r24
     888:	69 81       	ldd	r22, Y+1	; 0x01
     88a:	7a 81       	ldd	r23, Y+2	; 0x02
     88c:	8b 81       	ldd	r24, Y+3	; 0x03
     88e:	9c 81       	ldd	r25, Y+4	; 0x04
     890:	0e 94 f0 05 	call	0xbe0	; 0xbe0 <__addsf3>
     894:	2e ec       	ldi	r18, 0xCE	; 206
     896:	3b ef       	ldi	r19, 0xFB	; 251
     898:	4f e7       	ldi	r20, 0x7F	; 127
     89a:	5b e3       	ldi	r21, 0x3B	; 59
     89c:	0e 94 f4 07 	call	0xfe8	; 0xfe8 <__mulsf3>
     8a0:	20 e0       	ldi	r18, 0x00	; 0
     8a2:	30 e0       	ldi	r19, 0x00	; 0
     8a4:	40 e0       	ldi	r20, 0x00	; 0
     8a6:	53 e4       	ldi	r21, 0x43	; 67
     8a8:	0e 94 f0 05 	call	0xbe0	; 0xbe0 <__addsf3>
     8ac:	6b 01       	movw	r12, r22
     8ae:	7c 01       	movw	r14, r24
     8b0:	60 93 8e 00 	sts	0x008E, r22	; 0x80008e <BY1>
     8b4:	70 93 8f 00 	sts	0x008F, r23	; 0x80008f <BY1+0x1>
     8b8:	80 93 90 00 	sts	0x0090, r24	; 0x800090 <BY1+0x2>
     8bc:	90 93 91 00 	sts	0x0091, r25	; 0x800091 <BY1+0x3>
//frequency calculation and documented values
volatile float freqY1  =  1500 + (Y1 * 3.1372549);			//1757.2549(red)	1954.90196(green)	1628.62745(blue)
     8c0:	29 ec       	ldi	r18, 0xC9	; 201
     8c2:	38 ec       	ldi	r19, 0xC8	; 200
     8c4:	48 e4       	ldi	r20, 0x48	; 72
     8c6:	50 e4       	ldi	r21, 0x40	; 64
     8c8:	c3 01       	movw	r24, r6
     8ca:	b2 01       	movw	r22, r4
     8cc:	0e 94 f4 07 	call	0xfe8	; 0xfe8 <__mulsf3>
     8d0:	20 e0       	ldi	r18, 0x00	; 0
     8d2:	30 e8       	ldi	r19, 0x80	; 128
     8d4:	4b eb       	ldi	r20, 0xBB	; 187
     8d6:	54 e4       	ldi	r21, 0x44	; 68
     8d8:	0e 94 f0 05 	call	0xbe0	; 0xbe0 <__addsf3>
     8dc:	60 93 8a 00 	sts	0x008A, r22	; 0x80008a <freqY1>
     8e0:	70 93 8b 00 	sts	0x008B, r23	; 0x80008b <freqY1+0x1>
     8e4:	80 93 8c 00 	sts	0x008C, r24	; 0x80008c <freqY1+0x2>
     8e8:	90 93 8d 00 	sts	0x008D, r25	; 0x80008d <freqY1+0x3>
volatile float freqRY1 =   1500 + (RY1 * 3.1372549);		//2252.94118(red)  1606.66667(green)	1845.09804(blue)
     8ec:	29 ec       	ldi	r18, 0xC9	; 201
     8ee:	38 ec       	ldi	r19, 0xC8	; 200
     8f0:	48 e4       	ldi	r20, 0x48	; 72
     8f2:	50 e4       	ldi	r21, 0x40	; 64
     8f4:	c5 01       	movw	r24, r10
     8f6:	b4 01       	movw	r22, r8
     8f8:	0e 94 f4 07 	call	0xfe8	; 0xfe8 <__mulsf3>
     8fc:	20 e0       	ldi	r18, 0x00	; 0
     8fe:	30 e8       	ldi	r19, 0x80	; 128
     900:	4b eb       	ldi	r20, 0xBB	; 187
     902:	54 e4       	ldi	r21, 0x44	; 68
     904:	0e 94 f0 05 	call	0xbe0	; 0xbe0 <__addsf3>
     908:	60 93 86 00 	sts	0x0086, r22	; 0x800086 <freqRY1>
     90c:	70 93 87 00 	sts	0x0087, r23	; 0x800087 <freqRY1+0x1>
     910:	80 93 88 00 	sts	0x0088, r24	; 0x800088 <freqRY1+0x2>
     914:	90 93 89 00 	sts	0x0089, r25	; 0x800089 <freqRY1+0x3>
volatile float freqBY1 =  1500 + (BY1 * 3.1372549);		//1782.35294(red)	1669.41177(green)	2252.94118(blue)
     918:	29 ec       	ldi	r18, 0xC9	; 201
     91a:	38 ec       	ldi	r19, 0xC8	; 200
     91c:	48 e4       	ldi	r20, 0x48	; 72
     91e:	50 e4       	ldi	r21, 0x40	; 64
     920:	c7 01       	movw	r24, r14
     922:	b6 01       	movw	r22, r12
     924:	0e 94 f4 07 	call	0xfe8	; 0xfe8 <__mulsf3>
     928:	20 e0       	ldi	r18, 0x00	; 0
     92a:	30 e8       	ldi	r19, 0x80	; 128
     92c:	4b eb       	ldi	r20, 0xBB	; 187
     92e:	54 e4       	ldi	r21, 0x44	; 68
     930:	0e 94 f0 05 	call	0xbe0	; 0xbe0 <__addsf3>
     934:	60 93 82 00 	sts	0x0082, r22	; 0x800082 <freqBY1>
     938:	70 93 83 00 	sts	0x0083, r23	; 0x800083 <freqBY1+0x1>
     93c:	80 93 84 00 	sts	0x0084, r24	; 0x800084 <freqBY1+0x2>
     940:	90 93 85 00 	sts	0x0085, r25	; 0x800085 <freqBY1+0x3>

int R2=255,G2=255,B2=255;
float Y2 = 16.0 + (.003906 * ((65.738 * R2) + (129.057 * G2) + (25.064 * B2)));
     944:	60 91 64 00 	lds	r22, 0x0064	; 0x800064 <R2>
     948:	70 91 65 00 	lds	r23, 0x0065	; 0x800065 <R2+0x1>
     94c:	07 2e       	mov	r0, r23
     94e:	00 0c       	add	r0, r0
     950:	88 0b       	sbc	r24, r24
     952:	99 0b       	sbc	r25, r25
     954:	0e 94 06 07 	call	0xe0c	; 0xe0c <__floatsisf>
     958:	69 83       	std	Y+1, r22	; 0x01
     95a:	7a 83       	std	Y+2, r23	; 0x02
     95c:	8b 83       	std	Y+3, r24	; 0x03
     95e:	9c 83       	std	Y+4, r25	; 0x04
     960:	60 91 62 00 	lds	r22, 0x0062	; 0x800062 <G2>
     964:	70 91 63 00 	lds	r23, 0x0063	; 0x800063 <G2+0x1>
     968:	07 2e       	mov	r0, r23
     96a:	00 0c       	add	r0, r0
     96c:	88 0b       	sbc	r24, r24
     96e:	99 0b       	sbc	r25, r25
     970:	0e 94 06 07 	call	0xe0c	; 0xe0c <__floatsisf>
     974:	6d 83       	std	Y+5, r22	; 0x05
     976:	7e 83       	std	Y+6, r23	; 0x06
     978:	8f 83       	std	Y+7, r24	; 0x07
     97a:	98 87       	std	Y+8, r25	; 0x08
     97c:	60 91 60 00 	lds	r22, 0x0060	; 0x800060 <B2>
     980:	70 91 61 00 	lds	r23, 0x0061	; 0x800061 <B2+0x1>
     984:	07 2e       	mov	r0, r23
     986:	00 0c       	add	r0, r0
     988:	88 0b       	sbc	r24, r24
     98a:	99 0b       	sbc	r25, r25
     98c:	0e 94 06 07 	call	0xe0c	; 0xe0c <__floatsisf>
     990:	6b 01       	movw	r12, r22
     992:	7c 01       	movw	r14, r24
     994:	2b ed       	ldi	r18, 0xDB	; 219
     996:	39 e7       	ldi	r19, 0x79	; 121
     998:	43 e8       	ldi	r20, 0x83	; 131
     99a:	52 e4       	ldi	r21, 0x42	; 66
     99c:	69 81       	ldd	r22, Y+1	; 0x01
     99e:	7a 81       	ldd	r23, Y+2	; 0x02
     9a0:	8b 81       	ldd	r24, Y+3	; 0x03
     9a2:	9c 81       	ldd	r25, Y+4	; 0x04
     9a4:	0e 94 f4 07 	call	0xfe8	; 0xfe8 <__mulsf3>
     9a8:	4b 01       	movw	r8, r22
     9aa:	5c 01       	movw	r10, r24
     9ac:	28 e9       	ldi	r18, 0x98	; 152
     9ae:	3e e0       	ldi	r19, 0x0E	; 14
     9b0:	41 e0       	ldi	r20, 0x01	; 1
     9b2:	53 e4       	ldi	r21, 0x43	; 67
     9b4:	6d 81       	ldd	r22, Y+5	; 0x05
     9b6:	7e 81       	ldd	r23, Y+6	; 0x06
     9b8:	8f 81       	ldd	r24, Y+7	; 0x07
     9ba:	98 85       	ldd	r25, Y+8	; 0x08
     9bc:	0e 94 f4 07 	call	0xfe8	; 0xfe8 <__mulsf3>
     9c0:	9b 01       	movw	r18, r22
     9c2:	ac 01       	movw	r20, r24
     9c4:	c5 01       	movw	r24, r10
     9c6:	b4 01       	movw	r22, r8
     9c8:	0e 94 f0 05 	call	0xbe0	; 0xbe0 <__addsf3>
     9cc:	4b 01       	movw	r8, r22
     9ce:	5c 01       	movw	r10, r24
     9d0:	22 e1       	ldi	r18, 0x12	; 18
     9d2:	33 e8       	ldi	r19, 0x83	; 131
     9d4:	48 ec       	ldi	r20, 0xC8	; 200
     9d6:	51 e4       	ldi	r21, 0x41	; 65
     9d8:	c7 01       	movw	r24, r14
     9da:	b6 01       	movw	r22, r12
     9dc:	0e 94 f4 07 	call	0xfe8	; 0xfe8 <__mulsf3>
     9e0:	9b 01       	movw	r18, r22
     9e2:	ac 01       	movw	r20, r24
     9e4:	c5 01       	movw	r24, r10
     9e6:	b4 01       	movw	r22, r8
     9e8:	0e 94 f0 05 	call	0xbe0	; 0xbe0 <__addsf3>
     9ec:	2e ec       	ldi	r18, 0xCE	; 206
     9ee:	3b ef       	ldi	r19, 0xFB	; 251
     9f0:	4f e7       	ldi	r20, 0x7F	; 127
     9f2:	5b e3       	ldi	r21, 0x3B	; 59
     9f4:	0e 94 f4 07 	call	0xfe8	; 0xfe8 <__mulsf3>
     9f8:	20 e0       	ldi	r18, 0x00	; 0
     9fa:	30 e0       	ldi	r19, 0x00	; 0
     9fc:	40 e8       	ldi	r20, 0x80	; 128
     9fe:	51 e4       	ldi	r21, 0x41	; 65
     a00:	0e 94 f0 05 	call	0xbe0	; 0xbe0 <__addsf3>
     a04:	2b 01       	movw	r4, r22
     a06:	3c 01       	movw	r6, r24
     a08:	60 93 7e 00 	sts	0x007E, r22	; 0x80007e <Y2>
     a0c:	70 93 7f 00 	sts	0x007F, r23	; 0x80007f <Y2+0x1>
     a10:	80 93 80 00 	sts	0x0080, r24	; 0x800080 <Y2+0x2>
     a14:	90 93 81 00 	sts	0x0081, r25	; 0x800081 <Y2+0x3>
float RY2 = 128.0 + (.003906 * ((112.439 * R2) + (-94.154 * G2) + (-18.285 * B2)));
     a18:	25 ec       	ldi	r18, 0xC5	; 197
     a1a:	30 ee       	ldi	r19, 0xE0	; 224
     a1c:	40 ee       	ldi	r20, 0xE0	; 224
     a1e:	52 e4       	ldi	r21, 0x42	; 66
     a20:	69 81       	ldd	r22, Y+1	; 0x01
     a22:	7a 81       	ldd	r23, Y+2	; 0x02
     a24:	8b 81       	ldd	r24, Y+3	; 0x03
     a26:	9c 81       	ldd	r25, Y+4	; 0x04
     a28:	0e 94 f4 07 	call	0xfe8	; 0xfe8 <__mulsf3>
     a2c:	4b 01       	movw	r8, r22
     a2e:	5c 01       	movw	r10, r24
     a30:	29 ed       	ldi	r18, 0xD9	; 217
     a32:	3e e4       	ldi	r19, 0x4E	; 78
     a34:	4c eb       	ldi	r20, 0xBC	; 188
     a36:	52 ec       	ldi	r21, 0xC2	; 194
     a38:	6d 81       	ldd	r22, Y+5	; 0x05
     a3a:	7e 81       	ldd	r23, Y+6	; 0x06
     a3c:	8f 81       	ldd	r24, Y+7	; 0x07
     a3e:	98 85       	ldd	r25, Y+8	; 0x08
     a40:	0e 94 f4 07 	call	0xfe8	; 0xfe8 <__mulsf3>
     a44:	9b 01       	movw	r18, r22
     a46:	ac 01       	movw	r20, r24
     a48:	c5 01       	movw	r24, r10
     a4a:	b4 01       	movw	r22, r8
     a4c:	0e 94 f0 05 	call	0xbe0	; 0xbe0 <__addsf3>
     a50:	4b 01       	movw	r8, r22
     a52:	5c 01       	movw	r10, r24
     a54:	2e ea       	ldi	r18, 0xAE	; 174
     a56:	37 e4       	ldi	r19, 0x47	; 71
     a58:	42 e9       	ldi	r20, 0x92	; 146
     a5a:	51 ec       	ldi	r21, 0xC1	; 193
     a5c:	c7 01       	movw	r24, r14
     a5e:	b6 01       	movw	r22, r12
     a60:	0e 94 f4 07 	call	0xfe8	; 0xfe8 <__mulsf3>
     a64:	9b 01       	movw	r18, r22
     a66:	ac 01       	movw	r20, r24
     a68:	c5 01       	movw	r24, r10
     a6a:	b4 01       	movw	r22, r8
     a6c:	0e 94 f0 05 	call	0xbe0	; 0xbe0 <__addsf3>
     a70:	2e ec       	ldi	r18, 0xCE	; 206
     a72:	3b ef       	ldi	r19, 0xFB	; 251
     a74:	4f e7       	ldi	r20, 0x7F	; 127
     a76:	5b e3       	ldi	r21, 0x3B	; 59
     a78:	0e 94 f4 07 	call	0xfe8	; 0xfe8 <__mulsf3>
     a7c:	20 e0       	ldi	r18, 0x00	; 0
     a7e:	30 e0       	ldi	r19, 0x00	; 0
     a80:	40 e0       	ldi	r20, 0x00	; 0
     a82:	53 e4       	ldi	r21, 0x43	; 67
     a84:	0e 94 f0 05 	call	0xbe0	; 0xbe0 <__addsf3>
     a88:	4b 01       	movw	r8, r22
     a8a:	5c 01       	movw	r10, r24
     a8c:	60 93 7a 00 	sts	0x007A, r22	; 0x80007a <RY2>
     a90:	70 93 7b 00 	sts	0x007B, r23	; 0x80007b <RY2+0x1>
     a94:	80 93 7c 00 	sts	0x007C, r24	; 0x80007c <RY2+0x2>
     a98:	90 93 7d 00 	sts	0x007D, r25	; 0x80007d <RY2+0x3>
float BY2 = 128.0 + (.003906 * ((-37.945 * R2) + (-74.494 * G2) + (112.439 * B2)));
     a9c:	2e ea       	ldi	r18, 0xAE	; 174
     a9e:	37 ec       	ldi	r19, 0xC7	; 199
     aa0:	47 e1       	ldi	r20, 0x17	; 23
     aa2:	52 ec       	ldi	r21, 0xC2	; 194
     aa4:	69 81       	ldd	r22, Y+1	; 0x01
     aa6:	7a 81       	ldd	r23, Y+2	; 0x02
     aa8:	8b 81       	ldd	r24, Y+3	; 0x03
     aaa:	9c 81       	ldd	r25, Y+4	; 0x04
     aac:	0e 94 f4 07 	call	0xfe8	; 0xfe8 <__mulsf3>
     ab0:	69 83       	std	Y+1, r22	; 0x01
     ab2:	7a 83       	std	Y+2, r23	; 0x02
     ab4:	8b 83       	std	Y+3, r24	; 0x03
     ab6:	9c 83       	std	Y+4, r25	; 0x04
     ab8:	2e ee       	ldi	r18, 0xEE	; 238
     aba:	3c ef       	ldi	r19, 0xFC	; 252
     abc:	44 e9       	ldi	r20, 0x94	; 148
     abe:	52 ec       	ldi	r21, 0xC2	; 194
     ac0:	6d 81       	ldd	r22, Y+5	; 0x05
     ac2:	7e 81       	ldd	r23, Y+6	; 0x06
     ac4:	8f 81       	ldd	r24, Y+7	; 0x07
     ac6:	98 85       	ldd	r25, Y+8	; 0x08
     ac8:	0e 94 f4 07 	call	0xfe8	; 0xfe8 <__mulsf3>
     acc:	9b 01       	movw	r18, r22
     ace:	ac 01       	movw	r20, r24
     ad0:	69 81       	ldd	r22, Y+1	; 0x01
     ad2:	7a 81       	ldd	r23, Y+2	; 0x02
     ad4:	8b 81       	ldd	r24, Y+3	; 0x03
     ad6:	9c 81       	ldd	r25, Y+4	; 0x04
     ad8:	0e 94 f0 05 	call	0xbe0	; 0xbe0 <__addsf3>
     adc:	69 83       	std	Y+1, r22	; 0x01
     ade:	7a 83       	std	Y+2, r23	; 0x02
     ae0:	8b 83       	std	Y+3, r24	; 0x03
     ae2:	9c 83       	std	Y+4, r25	; 0x04
     ae4:	25 ec       	ldi	r18, 0xC5	; 197
     ae6:	30 ee       	ldi	r19, 0xE0	; 224
     ae8:	40 ee       	ldi	r20, 0xE0	; 224
     aea:	52 e4       	ldi	r21, 0x42	; 66
     aec:	c7 01       	movw	r24, r14
     aee:	b6 01       	movw	r22, r12
     af0:	0e 94 f4 07 	call	0xfe8	; 0xfe8 <__mulsf3>
     af4:	9b 01       	movw	r18, r22
     af6:	ac 01       	movw	r20, r24
     af8:	69 81       	ldd	r22, Y+1	; 0x01
     afa:	7a 81       	ldd	r23, Y+2	; 0x02
     afc:	8b 81       	ldd	r24, Y+3	; 0x03
     afe:	9c 81       	ldd	r25, Y+4	; 0x04
     b00:	0e 94 f0 05 	call	0xbe0	; 0xbe0 <__addsf3>
     b04:	2e ec       	ldi	r18, 0xCE	; 206
     b06:	3b ef       	ldi	r19, 0xFB	; 251
     b08:	4f e7       	ldi	r20, 0x7F	; 127
     b0a:	5b e3       	ldi	r21, 0x3B	; 59
     b0c:	0e 94 f4 07 	call	0xfe8	; 0xfe8 <__mulsf3>
     b10:	20 e0       	ldi	r18, 0x00	; 0
     b12:	30 e0       	ldi	r19, 0x00	; 0
     b14:	40 e0       	ldi	r20, 0x00	; 0
     b16:	53 e4       	ldi	r21, 0x43	; 67
     b18:	0e 94 f0 05 	call	0xbe0	; 0xbe0 <__addsf3>
     b1c:	6b 01       	movw	r12, r22
     b1e:	7c 01       	movw	r14, r24
     b20:	60 93 76 00 	sts	0x0076, r22	; 0x800076 <BY2>
     b24:	70 93 77 00 	sts	0x0077, r23	; 0x800077 <BY2+0x1>
     b28:	80 93 78 00 	sts	0x0078, r24	; 0x800078 <BY2+0x2>
     b2c:	90 93 79 00 	sts	0x0079, r25	; 0x800079 <BY2+0x3>
//frequency calculation and documented values
volatile float freqY2  =  1500 + (Y2  * 3.1372549);			//1757.2549(red)	1954.90196(green)	1628.62745(blue)
     b30:	29 ec       	ldi	r18, 0xC9	; 201
     b32:	38 ec       	ldi	r19, 0xC8	; 200
     b34:	48 e4       	ldi	r20, 0x48	; 72
     b36:	50 e4       	ldi	r21, 0x40	; 64
     b38:	c3 01       	movw	r24, r6
     b3a:	b2 01       	movw	r22, r4
     b3c:	0e 94 f4 07 	call	0xfe8	; 0xfe8 <__mulsf3>
     b40:	20 e0       	ldi	r18, 0x00	; 0
     b42:	30 e8       	ldi	r19, 0x80	; 128
     b44:	4b eb       	ldi	r20, 0xBB	; 187
     b46:	54 e4       	ldi	r21, 0x44	; 68
     b48:	0e 94 f0 05 	call	0xbe0	; 0xbe0 <__addsf3>
     b4c:	60 93 72 00 	sts	0x0072, r22	; 0x800072 <freqY2>
     b50:	70 93 73 00 	sts	0x0073, r23	; 0x800073 <freqY2+0x1>
     b54:	80 93 74 00 	sts	0x0074, r24	; 0x800074 <freqY2+0x2>
     b58:	90 93 75 00 	sts	0x0075, r25	; 0x800075 <freqY2+0x3>
volatile float freqRY2 =  1500 + (RY2 * 3.1372549);		//2252.94118(red)  1606.66667(green)	1845.09804(blue)
     b5c:	29 ec       	ldi	r18, 0xC9	; 201
     b5e:	38 ec       	ldi	r19, 0xC8	; 200
     b60:	48 e4       	ldi	r20, 0x48	; 72
     b62:	50 e4       	ldi	r21, 0x40	; 64
     b64:	c5 01       	movw	r24, r10
     b66:	b4 01       	movw	r22, r8
     b68:	0e 94 f4 07 	call	0xfe8	; 0xfe8 <__mulsf3>
     b6c:	20 e0       	ldi	r18, 0x00	; 0
     b6e:	30 e8       	ldi	r19, 0x80	; 128
     b70:	4b eb       	ldi	r20, 0xBB	; 187
     b72:	54 e4       	ldi	r21, 0x44	; 68
     b74:	0e 94 f0 05 	call	0xbe0	; 0xbe0 <__addsf3>
     b78:	60 93 6e 00 	sts	0x006E, r22	; 0x80006e <freqRY2>
     b7c:	70 93 6f 00 	sts	0x006F, r23	; 0x80006f <freqRY2+0x1>
     b80:	80 93 70 00 	sts	0x0070, r24	; 0x800070 <freqRY2+0x2>
     b84:	90 93 71 00 	sts	0x0071, r25	; 0x800071 <freqRY2+0x3>
volatile float freqBY2 =  1500 + (BY2 * 3.1372549);		//1782.35294(red)	1669.41177(green)	2252.94118(blue)
     b88:	29 ec       	ldi	r18, 0xC9	; 201
     b8a:	38 ec       	ldi	r19, 0xC8	; 200
     b8c:	48 e4       	ldi	r20, 0x48	; 72
     b8e:	50 e4       	ldi	r21, 0x40	; 64
     b90:	c7 01       	movw	r24, r14
     b92:	b6 01       	movw	r22, r12
     b94:	0e 94 f4 07 	call	0xfe8	; 0xfe8 <__mulsf3>
     b98:	20 e0       	ldi	r18, 0x00	; 0
     b9a:	30 e8       	ldi	r19, 0x80	; 128
     b9c:	4b eb       	ldi	r20, 0xBB	; 187
     b9e:	54 e4       	ldi	r21, 0x44	; 68
     ba0:	0e 94 f0 05 	call	0xbe0	; 0xbe0 <__addsf3>
     ba4:	60 93 6a 00 	sts	0x006A, r22	; 0x80006a <__data_end>
     ba8:	70 93 6b 00 	sts	0x006B, r23	; 0x80006b <__data_end+0x1>
     bac:	80 93 6c 00 	sts	0x006C, r24	; 0x80006c <__data_end+0x2>
     bb0:	90 93 6d 00 	sts	0x006D, r25	; 0x80006d <__data_end+0x3>
// 	if (global_frequency==prev_freq) compare=1;
// 	else compare =0;
    //if (cont==1280) i++;
}
	
     bb4:	28 96       	adiw	r28, 0x08	; 8
     bb6:	0f b6       	in	r0, 0x3f	; 63
     bb8:	f8 94       	cli
     bba:	de bf       	out	0x3e, r29	; 62
     bbc:	0f be       	out	0x3f, r0	; 63
     bbe:	cd bf       	out	0x3d, r28	; 61
     bc0:	df 91       	pop	r29
     bc2:	cf 91       	pop	r28
     bc4:	ff 90       	pop	r15
     bc6:	ef 90       	pop	r14
     bc8:	df 90       	pop	r13
     bca:	cf 90       	pop	r12
     bcc:	bf 90       	pop	r11
     bce:	af 90       	pop	r10
     bd0:	9f 90       	pop	r9
     bd2:	8f 90       	pop	r8
     bd4:	7f 90       	pop	r7
     bd6:	6f 90       	pop	r6
     bd8:	5f 90       	pop	r5
     bda:	4f 90       	pop	r4
     bdc:	08 95       	ret

00000bde <__subsf3>:
     bde:	50 58       	subi	r21, 0x80	; 128

00000be0 <__addsf3>:
     be0:	bb 27       	eor	r27, r27
     be2:	aa 27       	eor	r26, r26
     be4:	0e 94 07 06 	call	0xc0e	; 0xc0e <__addsf3x>
     be8:	0c 94 ba 07 	jmp	0xf74	; 0xf74 <__fp_round>
     bec:	0e 94 ac 07 	call	0xf58	; 0xf58 <__fp_pscA>
     bf0:	38 f0       	brcs	.+14     	; 0xc00 <__addsf3+0x20>
     bf2:	0e 94 b3 07 	call	0xf66	; 0xf66 <__fp_pscB>
     bf6:	20 f0       	brcs	.+8      	; 0xc00 <__addsf3+0x20>
     bf8:	39 f4       	brne	.+14     	; 0xc08 <__addsf3+0x28>
     bfa:	9f 3f       	cpi	r25, 0xFF	; 255
     bfc:	19 f4       	brne	.+6      	; 0xc04 <__addsf3+0x24>
     bfe:	26 f4       	brtc	.+8      	; 0xc08 <__addsf3+0x28>
     c00:	0c 94 a9 07 	jmp	0xf52	; 0xf52 <__fp_nan>
     c04:	0e f4       	brtc	.+2      	; 0xc08 <__addsf3+0x28>
     c06:	e0 95       	com	r30
     c08:	e7 fb       	bst	r30, 7
     c0a:	0c 94 95 07 	jmp	0xf2a	; 0xf2a <__fp_inf>

00000c0e <__addsf3x>:
     c0e:	e9 2f       	mov	r30, r25
     c10:	0e 94 cb 07 	call	0xf96	; 0xf96 <__fp_split3>
     c14:	58 f3       	brcs	.-42     	; 0xbec <__addsf3+0xc>
     c16:	ba 17       	cp	r27, r26
     c18:	62 07       	cpc	r22, r18
     c1a:	73 07       	cpc	r23, r19
     c1c:	84 07       	cpc	r24, r20
     c1e:	95 07       	cpc	r25, r21
     c20:	20 f0       	brcs	.+8      	; 0xc2a <__addsf3x+0x1c>
     c22:	79 f4       	brne	.+30     	; 0xc42 <__addsf3x+0x34>
     c24:	a6 f5       	brtc	.+104    	; 0xc8e <__addsf3x+0x80>
     c26:	0c 94 ed 07 	jmp	0xfda	; 0xfda <__fp_zero>
     c2a:	0e f4       	brtc	.+2      	; 0xc2e <__addsf3x+0x20>
     c2c:	e0 95       	com	r30
     c2e:	0b 2e       	mov	r0, r27
     c30:	ba 2f       	mov	r27, r26
     c32:	a0 2d       	mov	r26, r0
     c34:	0b 01       	movw	r0, r22
     c36:	b9 01       	movw	r22, r18
     c38:	90 01       	movw	r18, r0
     c3a:	0c 01       	movw	r0, r24
     c3c:	ca 01       	movw	r24, r20
     c3e:	a0 01       	movw	r20, r0
     c40:	11 24       	eor	r1, r1
     c42:	ff 27       	eor	r31, r31
     c44:	59 1b       	sub	r21, r25
     c46:	99 f0       	breq	.+38     	; 0xc6e <__addsf3x+0x60>
     c48:	59 3f       	cpi	r21, 0xF9	; 249
     c4a:	50 f4       	brcc	.+20     	; 0xc60 <__addsf3x+0x52>
     c4c:	50 3e       	cpi	r21, 0xE0	; 224
     c4e:	68 f1       	brcs	.+90     	; 0xcaa <__addsf3x+0x9c>
     c50:	1a 16       	cp	r1, r26
     c52:	f0 40       	sbci	r31, 0x00	; 0
     c54:	a2 2f       	mov	r26, r18
     c56:	23 2f       	mov	r18, r19
     c58:	34 2f       	mov	r19, r20
     c5a:	44 27       	eor	r20, r20
     c5c:	58 5f       	subi	r21, 0xF8	; 248
     c5e:	f3 cf       	rjmp	.-26     	; 0xc46 <__addsf3x+0x38>
     c60:	46 95       	lsr	r20
     c62:	37 95       	ror	r19
     c64:	27 95       	ror	r18
     c66:	a7 95       	ror	r26
     c68:	f0 40       	sbci	r31, 0x00	; 0
     c6a:	53 95       	inc	r21
     c6c:	c9 f7       	brne	.-14     	; 0xc60 <__addsf3x+0x52>
     c6e:	7e f4       	brtc	.+30     	; 0xc8e <__addsf3x+0x80>
     c70:	1f 16       	cp	r1, r31
     c72:	ba 0b       	sbc	r27, r26
     c74:	62 0b       	sbc	r22, r18
     c76:	73 0b       	sbc	r23, r19
     c78:	84 0b       	sbc	r24, r20
     c7a:	ba f0       	brmi	.+46     	; 0xcaa <__addsf3x+0x9c>
     c7c:	91 50       	subi	r25, 0x01	; 1
     c7e:	a1 f0       	breq	.+40     	; 0xca8 <__addsf3x+0x9a>
     c80:	ff 0f       	add	r31, r31
     c82:	bb 1f       	adc	r27, r27
     c84:	66 1f       	adc	r22, r22
     c86:	77 1f       	adc	r23, r23
     c88:	88 1f       	adc	r24, r24
     c8a:	c2 f7       	brpl	.-16     	; 0xc7c <__addsf3x+0x6e>
     c8c:	0e c0       	rjmp	.+28     	; 0xcaa <__addsf3x+0x9c>
     c8e:	ba 0f       	add	r27, r26
     c90:	62 1f       	adc	r22, r18
     c92:	73 1f       	adc	r23, r19
     c94:	84 1f       	adc	r24, r20
     c96:	48 f4       	brcc	.+18     	; 0xcaa <__addsf3x+0x9c>
     c98:	87 95       	ror	r24
     c9a:	77 95       	ror	r23
     c9c:	67 95       	ror	r22
     c9e:	b7 95       	ror	r27
     ca0:	f7 95       	ror	r31
     ca2:	9e 3f       	cpi	r25, 0xFE	; 254
     ca4:	08 f0       	brcs	.+2      	; 0xca8 <__addsf3x+0x9a>
     ca6:	b0 cf       	rjmp	.-160    	; 0xc08 <__addsf3+0x28>
     ca8:	93 95       	inc	r25
     caa:	88 0f       	add	r24, r24
     cac:	08 f0       	brcs	.+2      	; 0xcb0 <__addsf3x+0xa2>
     cae:	99 27       	eor	r25, r25
     cb0:	ee 0f       	add	r30, r30
     cb2:	97 95       	ror	r25
     cb4:	87 95       	ror	r24
     cb6:	08 95       	ret

00000cb8 <__divsf3>:
     cb8:	0e 94 70 06 	call	0xce0	; 0xce0 <__divsf3x>
     cbc:	0c 94 ba 07 	jmp	0xf74	; 0xf74 <__fp_round>
     cc0:	0e 94 b3 07 	call	0xf66	; 0xf66 <__fp_pscB>
     cc4:	58 f0       	brcs	.+22     	; 0xcdc <__divsf3+0x24>
     cc6:	0e 94 ac 07 	call	0xf58	; 0xf58 <__fp_pscA>
     cca:	40 f0       	brcs	.+16     	; 0xcdc <__divsf3+0x24>
     ccc:	29 f4       	brne	.+10     	; 0xcd8 <__divsf3+0x20>
     cce:	5f 3f       	cpi	r21, 0xFF	; 255
     cd0:	29 f0       	breq	.+10     	; 0xcdc <__divsf3+0x24>
     cd2:	0c 94 95 07 	jmp	0xf2a	; 0xf2a <__fp_inf>
     cd6:	51 11       	cpse	r21, r1
     cd8:	0c 94 ee 07 	jmp	0xfdc	; 0xfdc <__fp_szero>
     cdc:	0c 94 a9 07 	jmp	0xf52	; 0xf52 <__fp_nan>

00000ce0 <__divsf3x>:
     ce0:	0e 94 cb 07 	call	0xf96	; 0xf96 <__fp_split3>
     ce4:	68 f3       	brcs	.-38     	; 0xcc0 <__divsf3+0x8>

00000ce6 <__divsf3_pse>:
     ce6:	99 23       	and	r25, r25
     ce8:	b1 f3       	breq	.-20     	; 0xcd6 <__divsf3+0x1e>
     cea:	55 23       	and	r21, r21
     cec:	91 f3       	breq	.-28     	; 0xcd2 <__divsf3+0x1a>
     cee:	95 1b       	sub	r25, r21
     cf0:	55 0b       	sbc	r21, r21
     cf2:	bb 27       	eor	r27, r27
     cf4:	aa 27       	eor	r26, r26
     cf6:	62 17       	cp	r22, r18
     cf8:	73 07       	cpc	r23, r19
     cfa:	84 07       	cpc	r24, r20
     cfc:	38 f0       	brcs	.+14     	; 0xd0c <__divsf3_pse+0x26>
     cfe:	9f 5f       	subi	r25, 0xFF	; 255
     d00:	5f 4f       	sbci	r21, 0xFF	; 255
     d02:	22 0f       	add	r18, r18
     d04:	33 1f       	adc	r19, r19
     d06:	44 1f       	adc	r20, r20
     d08:	aa 1f       	adc	r26, r26
     d0a:	a9 f3       	breq	.-22     	; 0xcf6 <__divsf3_pse+0x10>
     d0c:	35 d0       	rcall	.+106    	; 0xd78 <__divsf3_pse+0x92>
     d0e:	0e 2e       	mov	r0, r30
     d10:	3a f0       	brmi	.+14     	; 0xd20 <__divsf3_pse+0x3a>
     d12:	e0 e8       	ldi	r30, 0x80	; 128
     d14:	32 d0       	rcall	.+100    	; 0xd7a <__divsf3_pse+0x94>
     d16:	91 50       	subi	r25, 0x01	; 1
     d18:	50 40       	sbci	r21, 0x00	; 0
     d1a:	e6 95       	lsr	r30
     d1c:	00 1c       	adc	r0, r0
     d1e:	ca f7       	brpl	.-14     	; 0xd12 <__divsf3_pse+0x2c>
     d20:	2b d0       	rcall	.+86     	; 0xd78 <__divsf3_pse+0x92>
     d22:	fe 2f       	mov	r31, r30
     d24:	29 d0       	rcall	.+82     	; 0xd78 <__divsf3_pse+0x92>
     d26:	66 0f       	add	r22, r22
     d28:	77 1f       	adc	r23, r23
     d2a:	88 1f       	adc	r24, r24
     d2c:	bb 1f       	adc	r27, r27
     d2e:	26 17       	cp	r18, r22
     d30:	37 07       	cpc	r19, r23
     d32:	48 07       	cpc	r20, r24
     d34:	ab 07       	cpc	r26, r27
     d36:	b0 e8       	ldi	r27, 0x80	; 128
     d38:	09 f0       	breq	.+2      	; 0xd3c <__divsf3_pse+0x56>
     d3a:	bb 0b       	sbc	r27, r27
     d3c:	80 2d       	mov	r24, r0
     d3e:	bf 01       	movw	r22, r30
     d40:	ff 27       	eor	r31, r31
     d42:	93 58       	subi	r25, 0x83	; 131
     d44:	5f 4f       	sbci	r21, 0xFF	; 255
     d46:	3a f0       	brmi	.+14     	; 0xd56 <__divsf3_pse+0x70>
     d48:	9e 3f       	cpi	r25, 0xFE	; 254
     d4a:	51 05       	cpc	r21, r1
     d4c:	78 f0       	brcs	.+30     	; 0xd6c <__divsf3_pse+0x86>
     d4e:	0c 94 95 07 	jmp	0xf2a	; 0xf2a <__fp_inf>
     d52:	0c 94 ee 07 	jmp	0xfdc	; 0xfdc <__fp_szero>
     d56:	5f 3f       	cpi	r21, 0xFF	; 255
     d58:	e4 f3       	brlt	.-8      	; 0xd52 <__divsf3_pse+0x6c>
     d5a:	98 3e       	cpi	r25, 0xE8	; 232
     d5c:	d4 f3       	brlt	.-12     	; 0xd52 <__divsf3_pse+0x6c>
     d5e:	86 95       	lsr	r24
     d60:	77 95       	ror	r23
     d62:	67 95       	ror	r22
     d64:	b7 95       	ror	r27
     d66:	f7 95       	ror	r31
     d68:	9f 5f       	subi	r25, 0xFF	; 255
     d6a:	c9 f7       	brne	.-14     	; 0xd5e <__divsf3_pse+0x78>
     d6c:	88 0f       	add	r24, r24
     d6e:	91 1d       	adc	r25, r1
     d70:	96 95       	lsr	r25
     d72:	87 95       	ror	r24
     d74:	97 f9       	bld	r25, 7
     d76:	08 95       	ret
     d78:	e1 e0       	ldi	r30, 0x01	; 1
     d7a:	66 0f       	add	r22, r22
     d7c:	77 1f       	adc	r23, r23
     d7e:	88 1f       	adc	r24, r24
     d80:	bb 1f       	adc	r27, r27
     d82:	62 17       	cp	r22, r18
     d84:	73 07       	cpc	r23, r19
     d86:	84 07       	cpc	r24, r20
     d88:	ba 07       	cpc	r27, r26
     d8a:	20 f0       	brcs	.+8      	; 0xd94 <__divsf3_pse+0xae>
     d8c:	62 1b       	sub	r22, r18
     d8e:	73 0b       	sbc	r23, r19
     d90:	84 0b       	sbc	r24, r20
     d92:	ba 0b       	sbc	r27, r26
     d94:	ee 1f       	adc	r30, r30
     d96:	88 f7       	brcc	.-30     	; 0xd7a <__divsf3_pse+0x94>
     d98:	e0 95       	com	r30
     d9a:	08 95       	ret

00000d9c <__fixsfsi>:
     d9c:	0e 94 d5 06 	call	0xdaa	; 0xdaa <__fixunssfsi>
     da0:	68 94       	set
     da2:	b1 11       	cpse	r27, r1
     da4:	0c 94 ee 07 	jmp	0xfdc	; 0xfdc <__fp_szero>
     da8:	08 95       	ret

00000daa <__fixunssfsi>:
     daa:	0e 94 d3 07 	call	0xfa6	; 0xfa6 <__fp_splitA>
     dae:	88 f0       	brcs	.+34     	; 0xdd2 <__fixunssfsi+0x28>
     db0:	9f 57       	subi	r25, 0x7F	; 127
     db2:	98 f0       	brcs	.+38     	; 0xdda <__fixunssfsi+0x30>
     db4:	b9 2f       	mov	r27, r25
     db6:	99 27       	eor	r25, r25
     db8:	b7 51       	subi	r27, 0x17	; 23
     dba:	b0 f0       	brcs	.+44     	; 0xde8 <__fixunssfsi+0x3e>
     dbc:	e1 f0       	breq	.+56     	; 0xdf6 <__fixunssfsi+0x4c>
     dbe:	66 0f       	add	r22, r22
     dc0:	77 1f       	adc	r23, r23
     dc2:	88 1f       	adc	r24, r24
     dc4:	99 1f       	adc	r25, r25
     dc6:	1a f0       	brmi	.+6      	; 0xdce <__fixunssfsi+0x24>
     dc8:	ba 95       	dec	r27
     dca:	c9 f7       	brne	.-14     	; 0xdbe <__fixunssfsi+0x14>
     dcc:	14 c0       	rjmp	.+40     	; 0xdf6 <__fixunssfsi+0x4c>
     dce:	b1 30       	cpi	r27, 0x01	; 1
     dd0:	91 f0       	breq	.+36     	; 0xdf6 <__fixunssfsi+0x4c>
     dd2:	0e 94 ed 07 	call	0xfda	; 0xfda <__fp_zero>
     dd6:	b1 e0       	ldi	r27, 0x01	; 1
     dd8:	08 95       	ret
     dda:	0c 94 ed 07 	jmp	0xfda	; 0xfda <__fp_zero>
     dde:	67 2f       	mov	r22, r23
     de0:	78 2f       	mov	r23, r24
     de2:	88 27       	eor	r24, r24
     de4:	b8 5f       	subi	r27, 0xF8	; 248
     de6:	39 f0       	breq	.+14     	; 0xdf6 <__fixunssfsi+0x4c>
     de8:	b9 3f       	cpi	r27, 0xF9	; 249
     dea:	cc f3       	brlt	.-14     	; 0xdde <__fixunssfsi+0x34>
     dec:	86 95       	lsr	r24
     dee:	77 95       	ror	r23
     df0:	67 95       	ror	r22
     df2:	b3 95       	inc	r27
     df4:	d9 f7       	brne	.-10     	; 0xdec <__fixunssfsi+0x42>
     df6:	3e f4       	brtc	.+14     	; 0xe06 <__fixunssfsi+0x5c>
     df8:	90 95       	com	r25
     dfa:	80 95       	com	r24
     dfc:	70 95       	com	r23
     dfe:	61 95       	neg	r22
     e00:	7f 4f       	sbci	r23, 0xFF	; 255
     e02:	8f 4f       	sbci	r24, 0xFF	; 255
     e04:	9f 4f       	sbci	r25, 0xFF	; 255
     e06:	08 95       	ret

00000e08 <__floatunsisf>:
     e08:	e8 94       	clt
     e0a:	09 c0       	rjmp	.+18     	; 0xe1e <__floatsisf+0x12>

00000e0c <__floatsisf>:
     e0c:	97 fb       	bst	r25, 7
     e0e:	3e f4       	brtc	.+14     	; 0xe1e <__floatsisf+0x12>
     e10:	90 95       	com	r25
     e12:	80 95       	com	r24
     e14:	70 95       	com	r23
     e16:	61 95       	neg	r22
     e18:	7f 4f       	sbci	r23, 0xFF	; 255
     e1a:	8f 4f       	sbci	r24, 0xFF	; 255
     e1c:	9f 4f       	sbci	r25, 0xFF	; 255
     e1e:	99 23       	and	r25, r25
     e20:	a9 f0       	breq	.+42     	; 0xe4c <__floatsisf+0x40>
     e22:	f9 2f       	mov	r31, r25
     e24:	96 e9       	ldi	r25, 0x96	; 150
     e26:	bb 27       	eor	r27, r27
     e28:	93 95       	inc	r25
     e2a:	f6 95       	lsr	r31
     e2c:	87 95       	ror	r24
     e2e:	77 95       	ror	r23
     e30:	67 95       	ror	r22
     e32:	b7 95       	ror	r27
     e34:	f1 11       	cpse	r31, r1
     e36:	f8 cf       	rjmp	.-16     	; 0xe28 <__floatsisf+0x1c>
     e38:	fa f4       	brpl	.+62     	; 0xe78 <__floatsisf+0x6c>
     e3a:	bb 0f       	add	r27, r27
     e3c:	11 f4       	brne	.+4      	; 0xe42 <__floatsisf+0x36>
     e3e:	60 ff       	sbrs	r22, 0
     e40:	1b c0       	rjmp	.+54     	; 0xe78 <__floatsisf+0x6c>
     e42:	6f 5f       	subi	r22, 0xFF	; 255
     e44:	7f 4f       	sbci	r23, 0xFF	; 255
     e46:	8f 4f       	sbci	r24, 0xFF	; 255
     e48:	9f 4f       	sbci	r25, 0xFF	; 255
     e4a:	16 c0       	rjmp	.+44     	; 0xe78 <__floatsisf+0x6c>
     e4c:	88 23       	and	r24, r24
     e4e:	11 f0       	breq	.+4      	; 0xe54 <__floatsisf+0x48>
     e50:	96 e9       	ldi	r25, 0x96	; 150
     e52:	11 c0       	rjmp	.+34     	; 0xe76 <__floatsisf+0x6a>
     e54:	77 23       	and	r23, r23
     e56:	21 f0       	breq	.+8      	; 0xe60 <__floatsisf+0x54>
     e58:	9e e8       	ldi	r25, 0x8E	; 142
     e5a:	87 2f       	mov	r24, r23
     e5c:	76 2f       	mov	r23, r22
     e5e:	05 c0       	rjmp	.+10     	; 0xe6a <__floatsisf+0x5e>
     e60:	66 23       	and	r22, r22
     e62:	71 f0       	breq	.+28     	; 0xe80 <__floatsisf+0x74>
     e64:	96 e8       	ldi	r25, 0x86	; 134
     e66:	86 2f       	mov	r24, r22
     e68:	70 e0       	ldi	r23, 0x00	; 0
     e6a:	60 e0       	ldi	r22, 0x00	; 0
     e6c:	2a f0       	brmi	.+10     	; 0xe78 <__floatsisf+0x6c>
     e6e:	9a 95       	dec	r25
     e70:	66 0f       	add	r22, r22
     e72:	77 1f       	adc	r23, r23
     e74:	88 1f       	adc	r24, r24
     e76:	da f7       	brpl	.-10     	; 0xe6e <__floatsisf+0x62>
     e78:	88 0f       	add	r24, r24
     e7a:	96 95       	lsr	r25
     e7c:	87 95       	ror	r24
     e7e:	97 f9       	bld	r25, 7
     e80:	08 95       	ret
     e82:	0e 94 ac 07 	call	0xf58	; 0xf58 <__fp_pscA>
     e86:	20 f0       	brcs	.+8      	; 0xe90 <__floatsisf+0x84>
     e88:	19 f0       	breq	.+6      	; 0xe90 <__floatsisf+0x84>
     e8a:	0e 94 b3 07 	call	0xf66	; 0xf66 <__fp_pscB>
     e8e:	50 f4       	brcc	.+20     	; 0xea4 <fmod+0xc>
     e90:	0c 94 a9 07 	jmp	0xf52	; 0xf52 <__fp_nan>
     e94:	0c 94 ee 07 	jmp	0xfdc	; 0xfdc <__fp_szero>

00000e98 <fmod>:
     e98:	e9 2f       	mov	r30, r25
     e9a:	0e 94 cb 07 	call	0xf96	; 0xf96 <__fp_split3>
     e9e:	88 f3       	brcs	.-30     	; 0xe82 <__floatsisf+0x76>
     ea0:	55 23       	and	r21, r21
     ea2:	b1 f3       	breq	.-20     	; 0xe90 <__floatsisf+0x84>
     ea4:	e7 fb       	bst	r30, 7
     ea6:	62 17       	cp	r22, r18
     ea8:	73 07       	cpc	r23, r19
     eaa:	84 07       	cpc	r24, r20
     eac:	95 07       	cpc	r25, r21
     eae:	a8 f1       	brcs	.+106    	; 0xf1a <fmod+0x82>
     eb0:	89 f3       	breq	.-30     	; 0xe94 <__floatsisf+0x88>
     eb2:	e9 2f       	mov	r30, r25
     eb4:	ff 27       	eor	r31, r31
     eb6:	88 23       	and	r24, r24
     eb8:	2a f0       	brmi	.+10     	; 0xec4 <fmod+0x2c>
     eba:	31 97       	sbiw	r30, 0x01	; 1
     ebc:	66 0f       	add	r22, r22
     ebe:	77 1f       	adc	r23, r23
     ec0:	88 1f       	adc	r24, r24
     ec2:	da f7       	brpl	.-10     	; 0xeba <fmod+0x22>
     ec4:	95 2f       	mov	r25, r21
     ec6:	55 27       	eor	r21, r21
     ec8:	44 23       	and	r20, r20
     eca:	32 f0       	brmi	.+12     	; 0xed8 <fmod+0x40>
     ecc:	91 50       	subi	r25, 0x01	; 1
     ece:	50 40       	sbci	r21, 0x00	; 0
     ed0:	22 0f       	add	r18, r18
     ed2:	33 1f       	adc	r19, r19
     ed4:	44 1f       	adc	r20, r20
     ed6:	d2 f7       	brpl	.-12     	; 0xecc <fmod+0x34>
     ed8:	bb 27       	eor	r27, r27
     eda:	e9 1b       	sub	r30, r25
     edc:	f5 0b       	sbc	r31, r21
     ede:	62 1b       	sub	r22, r18
     ee0:	73 0b       	sbc	r23, r19
     ee2:	84 0b       	sbc	r24, r20
     ee4:	b1 09       	sbc	r27, r1
     ee6:	b1 f2       	breq	.-84     	; 0xe94 <__floatsisf+0x88>
     ee8:	22 f4       	brpl	.+8      	; 0xef2 <fmod+0x5a>
     eea:	62 0f       	add	r22, r18
     eec:	73 1f       	adc	r23, r19
     eee:	84 1f       	adc	r24, r20
     ef0:	b1 1d       	adc	r27, r1
     ef2:	31 97       	sbiw	r30, 0x01	; 1
     ef4:	2a f0       	brmi	.+10     	; 0xf00 <fmod+0x68>
     ef6:	66 0f       	add	r22, r22
     ef8:	77 1f       	adc	r23, r23
     efa:	88 1f       	adc	r24, r24
     efc:	bb 1f       	adc	r27, r27
     efe:	ef cf       	rjmp	.-34     	; 0xede <fmod+0x46>
     f00:	91 50       	subi	r25, 0x01	; 1
     f02:	50 40       	sbci	r21, 0x00	; 0
     f04:	62 f0       	brmi	.+24     	; 0xf1e <fmod+0x86>
     f06:	41 f0       	breq	.+16     	; 0xf18 <fmod+0x80>
     f08:	88 23       	and	r24, r24
     f0a:	32 f0       	brmi	.+12     	; 0xf18 <fmod+0x80>
     f0c:	66 0f       	add	r22, r22
     f0e:	77 1f       	adc	r23, r23
     f10:	88 1f       	adc	r24, r24
     f12:	91 50       	subi	r25, 0x01	; 1
     f14:	50 40       	sbci	r21, 0x00	; 0
     f16:	c1 f7       	brne	.-16     	; 0xf08 <fmod+0x70>
     f18:	93 95       	inc	r25
     f1a:	0c 94 9b 07 	jmp	0xf36	; 0xf36 <__fp_mpack>
     f1e:	86 95       	lsr	r24
     f20:	77 95       	ror	r23
     f22:	67 95       	ror	r22
     f24:	9f 5f       	subi	r25, 0xFF	; 255
     f26:	d9 f7       	brne	.-10     	; 0xf1e <fmod+0x86>
     f28:	f7 cf       	rjmp	.-18     	; 0xf18 <fmod+0x80>

00000f2a <__fp_inf>:
     f2a:	97 f9       	bld	r25, 7
     f2c:	9f 67       	ori	r25, 0x7F	; 127
     f2e:	80 e8       	ldi	r24, 0x80	; 128
     f30:	70 e0       	ldi	r23, 0x00	; 0
     f32:	60 e0       	ldi	r22, 0x00	; 0
     f34:	08 95       	ret

00000f36 <__fp_mpack>:
     f36:	9f 3f       	cpi	r25, 0xFF	; 255
     f38:	31 f0       	breq	.+12     	; 0xf46 <__fp_mpack_finite+0xc>

00000f3a <__fp_mpack_finite>:
     f3a:	91 50       	subi	r25, 0x01	; 1
     f3c:	20 f4       	brcc	.+8      	; 0xf46 <__fp_mpack_finite+0xc>
     f3e:	87 95       	ror	r24
     f40:	77 95       	ror	r23
     f42:	67 95       	ror	r22
     f44:	b7 95       	ror	r27
     f46:	88 0f       	add	r24, r24
     f48:	91 1d       	adc	r25, r1
     f4a:	96 95       	lsr	r25
     f4c:	87 95       	ror	r24
     f4e:	97 f9       	bld	r25, 7
     f50:	08 95       	ret

00000f52 <__fp_nan>:
     f52:	9f ef       	ldi	r25, 0xFF	; 255
     f54:	80 ec       	ldi	r24, 0xC0	; 192
     f56:	08 95       	ret

00000f58 <__fp_pscA>:
     f58:	00 24       	eor	r0, r0
     f5a:	0a 94       	dec	r0
     f5c:	16 16       	cp	r1, r22
     f5e:	17 06       	cpc	r1, r23
     f60:	18 06       	cpc	r1, r24
     f62:	09 06       	cpc	r0, r25
     f64:	08 95       	ret

00000f66 <__fp_pscB>:
     f66:	00 24       	eor	r0, r0
     f68:	0a 94       	dec	r0
     f6a:	12 16       	cp	r1, r18
     f6c:	13 06       	cpc	r1, r19
     f6e:	14 06       	cpc	r1, r20
     f70:	05 06       	cpc	r0, r21
     f72:	08 95       	ret

00000f74 <__fp_round>:
     f74:	09 2e       	mov	r0, r25
     f76:	03 94       	inc	r0
     f78:	00 0c       	add	r0, r0
     f7a:	11 f4       	brne	.+4      	; 0xf80 <__fp_round+0xc>
     f7c:	88 23       	and	r24, r24
     f7e:	52 f0       	brmi	.+20     	; 0xf94 <__fp_round+0x20>
     f80:	bb 0f       	add	r27, r27
     f82:	40 f4       	brcc	.+16     	; 0xf94 <__fp_round+0x20>
     f84:	bf 2b       	or	r27, r31
     f86:	11 f4       	brne	.+4      	; 0xf8c <__fp_round+0x18>
     f88:	60 ff       	sbrs	r22, 0
     f8a:	04 c0       	rjmp	.+8      	; 0xf94 <__fp_round+0x20>
     f8c:	6f 5f       	subi	r22, 0xFF	; 255
     f8e:	7f 4f       	sbci	r23, 0xFF	; 255
     f90:	8f 4f       	sbci	r24, 0xFF	; 255
     f92:	9f 4f       	sbci	r25, 0xFF	; 255
     f94:	08 95       	ret

00000f96 <__fp_split3>:
     f96:	57 fd       	sbrc	r21, 7
     f98:	90 58       	subi	r25, 0x80	; 128
     f9a:	44 0f       	add	r20, r20
     f9c:	55 1f       	adc	r21, r21
     f9e:	59 f0       	breq	.+22     	; 0xfb6 <__fp_splitA+0x10>
     fa0:	5f 3f       	cpi	r21, 0xFF	; 255
     fa2:	71 f0       	breq	.+28     	; 0xfc0 <__fp_splitA+0x1a>
     fa4:	47 95       	ror	r20

00000fa6 <__fp_splitA>:
     fa6:	88 0f       	add	r24, r24
     fa8:	97 fb       	bst	r25, 7
     faa:	99 1f       	adc	r25, r25
     fac:	61 f0       	breq	.+24     	; 0xfc6 <__fp_splitA+0x20>
     fae:	9f 3f       	cpi	r25, 0xFF	; 255
     fb0:	79 f0       	breq	.+30     	; 0xfd0 <__fp_splitA+0x2a>
     fb2:	87 95       	ror	r24
     fb4:	08 95       	ret
     fb6:	12 16       	cp	r1, r18
     fb8:	13 06       	cpc	r1, r19
     fba:	14 06       	cpc	r1, r20
     fbc:	55 1f       	adc	r21, r21
     fbe:	f2 cf       	rjmp	.-28     	; 0xfa4 <__fp_split3+0xe>
     fc0:	46 95       	lsr	r20
     fc2:	f1 df       	rcall	.-30     	; 0xfa6 <__fp_splitA>
     fc4:	08 c0       	rjmp	.+16     	; 0xfd6 <__fp_splitA+0x30>
     fc6:	16 16       	cp	r1, r22
     fc8:	17 06       	cpc	r1, r23
     fca:	18 06       	cpc	r1, r24
     fcc:	99 1f       	adc	r25, r25
     fce:	f1 cf       	rjmp	.-30     	; 0xfb2 <__fp_splitA+0xc>
     fd0:	86 95       	lsr	r24
     fd2:	71 05       	cpc	r23, r1
     fd4:	61 05       	cpc	r22, r1
     fd6:	08 94       	sec
     fd8:	08 95       	ret

00000fda <__fp_zero>:
     fda:	e8 94       	clt

00000fdc <__fp_szero>:
     fdc:	bb 27       	eor	r27, r27
     fde:	66 27       	eor	r22, r22
     fe0:	77 27       	eor	r23, r23
     fe2:	cb 01       	movw	r24, r22
     fe4:	97 f9       	bld	r25, 7
     fe6:	08 95       	ret

00000fe8 <__mulsf3>:
     fe8:	0e 94 07 08 	call	0x100e	; 0x100e <__mulsf3x>
     fec:	0c 94 ba 07 	jmp	0xf74	; 0xf74 <__fp_round>
     ff0:	0e 94 ac 07 	call	0xf58	; 0xf58 <__fp_pscA>
     ff4:	38 f0       	brcs	.+14     	; 0x1004 <__mulsf3+0x1c>
     ff6:	0e 94 b3 07 	call	0xf66	; 0xf66 <__fp_pscB>
     ffa:	20 f0       	brcs	.+8      	; 0x1004 <__mulsf3+0x1c>
     ffc:	95 23       	and	r25, r21
     ffe:	11 f0       	breq	.+4      	; 0x1004 <__mulsf3+0x1c>
    1000:	0c 94 95 07 	jmp	0xf2a	; 0xf2a <__fp_inf>
    1004:	0c 94 a9 07 	jmp	0xf52	; 0xf52 <__fp_nan>
    1008:	11 24       	eor	r1, r1
    100a:	0c 94 ee 07 	jmp	0xfdc	; 0xfdc <__fp_szero>

0000100e <__mulsf3x>:
    100e:	0e 94 cb 07 	call	0xf96	; 0xf96 <__fp_split3>
    1012:	70 f3       	brcs	.-36     	; 0xff0 <__mulsf3+0x8>

00001014 <__mulsf3_pse>:
    1014:	95 9f       	mul	r25, r21
    1016:	c1 f3       	breq	.-16     	; 0x1008 <__mulsf3+0x20>
    1018:	95 0f       	add	r25, r21
    101a:	50 e0       	ldi	r21, 0x00	; 0
    101c:	55 1f       	adc	r21, r21
    101e:	62 9f       	mul	r22, r18
    1020:	f0 01       	movw	r30, r0
    1022:	72 9f       	mul	r23, r18
    1024:	bb 27       	eor	r27, r27
    1026:	f0 0d       	add	r31, r0
    1028:	b1 1d       	adc	r27, r1
    102a:	63 9f       	mul	r22, r19
    102c:	aa 27       	eor	r26, r26
    102e:	f0 0d       	add	r31, r0
    1030:	b1 1d       	adc	r27, r1
    1032:	aa 1f       	adc	r26, r26
    1034:	64 9f       	mul	r22, r20
    1036:	66 27       	eor	r22, r22
    1038:	b0 0d       	add	r27, r0
    103a:	a1 1d       	adc	r26, r1
    103c:	66 1f       	adc	r22, r22
    103e:	82 9f       	mul	r24, r18
    1040:	22 27       	eor	r18, r18
    1042:	b0 0d       	add	r27, r0
    1044:	a1 1d       	adc	r26, r1
    1046:	62 1f       	adc	r22, r18
    1048:	73 9f       	mul	r23, r19
    104a:	b0 0d       	add	r27, r0
    104c:	a1 1d       	adc	r26, r1
    104e:	62 1f       	adc	r22, r18
    1050:	83 9f       	mul	r24, r19
    1052:	a0 0d       	add	r26, r0
    1054:	61 1d       	adc	r22, r1
    1056:	22 1f       	adc	r18, r18
    1058:	74 9f       	mul	r23, r20
    105a:	33 27       	eor	r19, r19
    105c:	a0 0d       	add	r26, r0
    105e:	61 1d       	adc	r22, r1
    1060:	23 1f       	adc	r18, r19
    1062:	84 9f       	mul	r24, r20
    1064:	60 0d       	add	r22, r0
    1066:	21 1d       	adc	r18, r1
    1068:	82 2f       	mov	r24, r18
    106a:	76 2f       	mov	r23, r22
    106c:	6a 2f       	mov	r22, r26
    106e:	11 24       	eor	r1, r1
    1070:	9f 57       	subi	r25, 0x7F	; 127
    1072:	50 40       	sbci	r21, 0x00	; 0
    1074:	9a f0       	brmi	.+38     	; 0x109c <__mulsf3_pse+0x88>
    1076:	f1 f0       	breq	.+60     	; 0x10b4 <__mulsf3_pse+0xa0>
    1078:	88 23       	and	r24, r24
    107a:	4a f0       	brmi	.+18     	; 0x108e <__mulsf3_pse+0x7a>
    107c:	ee 0f       	add	r30, r30
    107e:	ff 1f       	adc	r31, r31
    1080:	bb 1f       	adc	r27, r27
    1082:	66 1f       	adc	r22, r22
    1084:	77 1f       	adc	r23, r23
    1086:	88 1f       	adc	r24, r24
    1088:	91 50       	subi	r25, 0x01	; 1
    108a:	50 40       	sbci	r21, 0x00	; 0
    108c:	a9 f7       	brne	.-22     	; 0x1078 <__mulsf3_pse+0x64>
    108e:	9e 3f       	cpi	r25, 0xFE	; 254
    1090:	51 05       	cpc	r21, r1
    1092:	80 f0       	brcs	.+32     	; 0x10b4 <__mulsf3_pse+0xa0>
    1094:	0c 94 95 07 	jmp	0xf2a	; 0xf2a <__fp_inf>
    1098:	0c 94 ee 07 	jmp	0xfdc	; 0xfdc <__fp_szero>
    109c:	5f 3f       	cpi	r21, 0xFF	; 255
    109e:	e4 f3       	brlt	.-8      	; 0x1098 <__mulsf3_pse+0x84>
    10a0:	98 3e       	cpi	r25, 0xE8	; 232
    10a2:	d4 f3       	brlt	.-12     	; 0x1098 <__mulsf3_pse+0x84>
    10a4:	86 95       	lsr	r24
    10a6:	77 95       	ror	r23
    10a8:	67 95       	ror	r22
    10aa:	b7 95       	ror	r27
    10ac:	f7 95       	ror	r31
    10ae:	e7 95       	ror	r30
    10b0:	9f 5f       	subi	r25, 0xFF	; 255
    10b2:	c1 f7       	brne	.-16     	; 0x10a4 <__mulsf3_pse+0x90>
    10b4:	fe 2b       	or	r31, r30
    10b6:	88 0f       	add	r24, r24
    10b8:	91 1d       	adc	r25, r1
    10ba:	96 95       	lsr	r25
    10bc:	87 95       	ror	r24
    10be:	97 f9       	bld	r25, 7
    10c0:	08 95       	ret

000010c2 <__tablejump2__>:
    10c2:	ee 0f       	add	r30, r30
    10c4:	ff 1f       	adc	r31, r31
    10c6:	05 90       	lpm	r0, Z+
    10c8:	f4 91       	lpm	r31, Z
    10ca:	e0 2d       	mov	r30, r0
    10cc:	09 94       	ijmp

000010ce <_exit>:
    10ce:	f8 94       	cli

000010d0 <__stop_program>:
    10d0:	ff cf       	rjmp	.-2      	; 0x10d0 <__stop_program>
